###############################################################################
#
# IAR ELF Linker V7.80.2.11947/W32 for ARM                15/Jul/2017  11:03:32
# Copyright 2007-2016 IAR Systems AB.
#
#    Output file  =  E:\Tracy\NXP\KW41Z\资料\bm\bm\debug\bm.out.tmp
#    Map file     =  E:\Tracy\NXP\KW41Z\资料\bm\bm\debug\list\bm.map
#    Command line =  
#        E:\Tracy\NXP\KW41Z\资料\bm\bm\debug\obj\app_config.o
#        E:\Tracy\NXP\KW41Z\资料\bm\bm\debug\obj\ApplMain.o
#        E:\Tracy\NXP\KW41Z\资料\bm\bm\debug\obj\battery_service.o
#        E:\Tracy\NXP\KW41Z\资料\bm\bm\debug\obj\ble_conn_manager.o
#        E:\Tracy\NXP\KW41Z\资料\bm\bm\debug\obj\ble_controller_task.o
#        E:\Tracy\NXP\KW41Z\资料\bm\bm\debug\obj\ble_globals.o
#        E:\Tracy\NXP\KW41Z\资料\bm\bm\debug\obj\ble_host_tasks.o
#        E:\Tracy\NXP\KW41Z\资料\bm\bm\debug\obj\ble_init.o
#        E:\Tracy\NXP\KW41Z\资料\bm\bm\debug\obj\ble_service_discovery.o
#        E:\Tracy\NXP\KW41Z\资料\bm\bm\debug\obj\board.o
#        E:\Tracy\NXP\KW41Z\资料\bm\bm\debug\obj\clock_config.o
#        E:\Tracy\NXP\KW41Z\资料\bm\bm\debug\obj\dbg_ram_capture.o
#        E:\Tracy\NXP\KW41Z\资料\bm\bm\debug\obj\DCDC.o
#        E:\Tracy\NXP\KW41Z\资料\bm\bm\debug\obj\device_info_service.o
#        E:\Tracy\NXP\KW41Z\资料\bm\bm\debug\obj\Flash_Adapter.o
#        E:\Tracy\NXP\KW41Z\资料\bm\bm\debug\obj\fsl_adc16.o
#        E:\Tracy\NXP\KW41Z\资料\bm\bm\debug\obj\fsl_clock.o
#        E:\Tracy\NXP\KW41Z\资料\bm\bm\debug\obj\fsl_common.o
#        E:\Tracy\NXP\KW41Z\资料\bm\bm\debug\obj\fsl_debug_console.o
#        E:\Tracy\NXP\KW41Z\资料\bm\bm\debug\obj\fsl_dspi.o
#        E:\Tracy\NXP\KW41Z\资料\bm\bm\debug\obj\fsl_flash.o
#        E:\Tracy\NXP\KW41Z\资料\bm\bm\debug\obj\fsl_gpio.o
#        E:\Tracy\NXP\KW41Z\资料\bm\bm\debug\obj\fsl_i2c.o
#        E:\Tracy\NXP\KW41Z\资料\bm\bm\debug\obj\fsl_llwu.o
#        E:\Tracy\NXP\KW41Z\资料\bm\bm\debug\obj\fsl_lptmr.o
#        E:\Tracy\NXP\KW41Z\资料\bm\bm\debug\obj\fsl_lpuart.o
#        E:\Tracy\NXP\KW41Z\资料\bm\bm\debug\obj\fsl_ltc.o
#        E:\Tracy\NXP\KW41Z\资料\bm\bm\debug\obj\fsl_os_abstraction_bm.o
#        E:\Tracy\NXP\KW41Z\资料\bm\bm\debug\obj\fsl_pmc.o
#        E:\Tracy\NXP\KW41Z\资料\bm\bm\debug\obj\fsl_rtc.o
#        E:\Tracy\NXP\KW41Z\资料\bm\bm\debug\obj\fsl_smc.o
#        E:\Tracy\NXP\KW41Z\资料\bm\bm\debug\obj\fsl_tpm.o
#        E:\Tracy\NXP\KW41Z\资料\bm\bm\debug\obj\fsl_trng.o
#        E:\Tracy\NXP\KW41Z\资料\bm\bm\debug\obj\fsl_xcvr.o
#        E:\Tracy\NXP\KW41Z\资料\bm\bm\debug\obj\fsl_xcvr_ant_config.o
#        E:\Tracy\NXP\KW41Z\资料\bm\bm\debug\obj\fsl_xcvr_ble_config.o
#        E:\Tracy\NXP\KW41Z\资料\bm\bm\debug\obj\fsl_xcvr_common_config.o
#        E:\Tracy\NXP\KW41Z\资料\bm\bm\debug\obj\fsl_xcvr_gfsk_bt_0p3_h_0p5_config.o
#        E:\Tracy\NXP\KW41Z\资料\bm\bm\debug\obj\fsl_xcvr_gfsk_bt_0p5_h_0p32_config.o
#        E:\Tracy\NXP\KW41Z\资料\bm\bm\debug\obj\fsl_xcvr_gfsk_bt_0p5_h_0p5_config.o
#        E:\Tracy\NXP\KW41Z\资料\bm\bm\debug\obj\fsl_xcvr_gfsk_bt_0p5_h_0p7_config.o
#        E:\Tracy\NXP\KW41Z\资料\bm\bm\debug\obj\fsl_xcvr_gfsk_bt_0p5_h_1p0_config.o
#        E:\Tracy\NXP\KW41Z\资料\bm\bm\debug\obj\fsl_xcvr_gfsk_bt_0p7_h_0p5_config.o
#        E:\Tracy\NXP\KW41Z\资料\bm\bm\debug\obj\fsl_xcvr_mode_datarate_config.o
#        E:\Tracy\NXP\KW41Z\资料\bm\bm\debug\obj\fsl_xcvr_msk_config.o
#        E:\Tracy\NXP\KW41Z\资料\bm\bm\debug\obj\fsl_xcvr_trim.o
#        E:\Tracy\NXP\KW41Z\资料\bm\bm\debug\obj\fsl_xcvr_zgbe_config.o
#        E:\Tracy\NXP\KW41Z\资料\bm\bm\debug\obj\FunctionLib.o
#        E:\Tracy\NXP\KW41Z\资料\bm\bm\debug\obj\gatt_database.o
#        E:\Tracy\NXP\KW41Z\资料\bm\bm\debug\obj\GenericList.o
#        E:\Tracy\NXP\KW41Z\资料\bm\bm\debug\obj\GPIO_Adapter.o
#        E:\Tracy\NXP\KW41Z\资料\bm\bm\debug\obj\gpio_pins.o
#        E:\Tracy\NXP\KW41Z\资料\bm\bm\debug\obj\hcit_serial_interface.o
#        E:\Tracy\NXP\KW41Z\资料\bm\bm\debug\obj\I2C_Adapter.o
#        E:\Tracy\NXP\KW41Z\资料\bm\bm\debug\obj\ifr_radio.o
#        E:\Tracy\NXP\KW41Z\资料\bm\bm\debug\obj\Keyboard.o
#        E:\Tracy\NXP\KW41Z\资料\bm\bm\debug\obj\LED.o
#        E:\Tracy\NXP\KW41Z\资料\bm\bm\lib_ble_4-2_host_cm0p.a
#        E:\Tracy\NXP\KW41Z\资料\bm\bm\lib_ble_kw41z_controller.a
#        E:\Tracy\NXP\KW41Z\资料\bm\bm\lib_crypto_m0.a
#        E:\Tracy\NXP\KW41Z\资料\bm\bm\debug\obj\MemManager.o
#        E:\Tracy\NXP\KW41Z\资料\bm\bm\debug\obj\Messaging.o
#        E:\Tracy\NXP\KW41Z\资料\bm\bm\debug\obj\ModuleInfo.o
#        E:\Tracy\NXP\KW41Z\资料\bm\bm\debug\obj\MWS.o
#        E:\Tracy\NXP\KW41Z\资料\bm\bm\debug\obj\NV_Flash.o
#        E:\Tracy\NXP\KW41Z\资料\bm\bm\debug\obj\NV_FsciCommands.o
#        E:\Tracy\NXP\KW41Z\资料\bm\bm\debug\obj\Panic.o
#        E:\Tracy\NXP\KW41Z\资料\bm\bm\debug\obj\pin_mux.o
#        E:\Tracy\NXP\KW41Z\资料\bm\bm\debug\obj\Reset.o
#        E:\Tracy\NXP\KW41Z\资料\bm\bm\debug\obj\RNG.o
#        E:\Tracy\NXP\KW41Z\资料\bm\bm\debug\obj\SecLib.o
#        E:\Tracy\NXP\KW41Z\资料\bm\bm\debug\obj\SerialManager.o
#        E:\Tracy\NXP\KW41Z\资料\bm\bm\debug\obj\shell.o
#        E:\Tracy\NXP\KW41Z\资料\bm\bm\debug\obj\shell_autocomplete.o
#        E:\Tracy\NXP\KW41Z\资料\bm\bm\debug\obj\shell_cmdhelp.o
#        E:\Tracy\NXP\KW41Z\资料\bm\bm\debug\obj\shell_cmdhist.o
#        E:\Tracy\NXP\KW41Z\资料\bm\bm\debug\obj\SPI_Adapter.o
#        E:\Tracy\NXP\KW41Z\资料\bm\bm\debug\obj\system_MKW41Z4.o
#        E:\Tracy\NXP\KW41Z\资料\bm\bm\debug\obj\TimersManager.o
#        E:\Tracy\NXP\KW41Z\资料\bm\bm\debug\obj\TMR_Adapter.o
#        E:\Tracy\NXP\KW41Z\资料\bm\bm\debug\obj\UART_Adapter.o
#        E:\Tracy\NXP\KW41Z\资料\bm\bm\debug\obj\wireless_uart.o
#        E:\Tracy\NXP\KW41Z\资料\bm\bm\debug\obj\wireless_uart_service.o
#        --redirect _Printf=_PrintfSmall --redirect _Scanf=_ScanfSmall -o
#        E:\Tracy\NXP\KW41Z\资料\bm\bm\debug\bm.out.tmp --config_def
#        gUseNVMLink_d=1 --map E:\Tracy\NXP\KW41Z\资料\bm\bm\debug\list\bm.map
#        --config E:\Tracy\NXP\KW41Z\资料\bm\bm/MKW41Z512xxx4_connectivity.icf
#        --semihosting --entry __iar_program_start --vfe
#
###############################################################################

*******************************************************************************
*** RUNTIME MODEL ATTRIBUTES
***

CppFlavor       = *
__SystemLibrary = DLib


*******************************************************************************
*** PLACEMENT SUMMARY
***

"A0":  place at 0x00000000 { ro section .intvec };
"P1":  place in [from 0x00000000 to 0x000003ff] |
                [from 0x00000410 to 0x0007d7ff] { ro };
"P2":  place in [from 0x1fff80c0 to 0x1fffffff] |
                [from 0x20000000 to 0x20017bff] { rw, zi };
"P4":  place in [from 0x20017c00 to 0x20017fff] { block CSTACK };
initialize by copy { rw, section .textrw };

  Section            Kind        Address     Size  Object
  -------            ----        -------     ----  ------
"A0":                                        0x40
  .intvec            ro code  0x00000000     0x40  vector_table_M.o [8]
                            - 0x00000040     0x40

"P1", part 1 of 2:                            0x0
  .rodata            const    0x00000040      0x0  zero_init3.o [8]
  .rodata            const    0x00000040      0x0  lz77_init.o [8]

"P1", part 2 of 2:                        0x27675
  .text              ro code  0x00000410   0x4350  sm_states.o [4]
  .text              ro code  0x00004760    0x288  sm_states_tb.o [4]
  .text              ro code  0x000049e8    0x1c8  sm_states_hci.o [4]
  .text              ro code  0x00004bb0     0x30  sm_debug.o [4]
  .text              ro code  0x00004be0     0x62  FunctionLib.o [1]
  .rodata            const    0x00004c42      0x2  ble_controller_task.o [1]
  .text              ro code  0x00004c44    0x61c  SecLib.o [1]
  .text              ro code  0x00005260    0x208  RNG.o [1]
  .text              ro code  0x00005468    0x46c  sm_crypto.o [4]
  .text              ro code  0x000058d4    0x6d8  sm_core.o [4]
  .text              ro code  0x00005fac    0x794  TimersManager.o [1]
  .text              ro code  0x00006740     0x32  I64Mul.o [8]
  .text              ro code  0x00006772     0x6a  I64DivMod.o [8]
  .text              ro code  0x000067dc    0x4fc  sm_packet_op.o [4]
  .text              ro code  0x00006cd8   0x118c  hci_commands.o [4]
  .text              ro code  0x00007e64    0xb90  fsl_ltc.o [1]
  .text              ro code  0x000089f4     0x34  ABImemset.o [8]
  .text              ro code  0x00008a28     0x34  ABImemcpy.o [8]
  .text              ro code  0x00008a5c    0x1d8  SW_SHA1.o [6]
  .text              ro code  0x00008c34    0x158  MemManager.o [1]
  .text              ro code  0x00008d8c     0xd6  ecdh.o [6]
  .text              ro code  0x00008e62      0x2  vector_table_M.o [8]
  .text              ro code  0x00008e64    0x632  fsl_trng.o [1]
  .rodata            const    0x00009496      0x1  app_config.o [1]
  .rodata            const    0x00009497      0x1  ble_controller_task.o [1]
  .text              ro code  0x00009498    0x324  fsl_os_abstraction_bm.o [1]
  .text              ro code  0x000097bc     0x38  SW_RNG.o [6]
  .text              ro code  0x000097f4     0xe0  I32DivModFast.o [8]
  .text              ro code  0x000098d4    0x840  device_db.o [4]
  .text              ro code  0x0000a114     0x3c  Messaging.o [1]
  .text              ro code  0x0000a150    0x174  l2ca_main.o [4]
  .text              ro code  0x0000a2c4    0x740  l2ca_resource_manager.o [4]
  .text              ro code  0x0000aa04    0x1c0  TMR_Adapter.o [1]
  .text              ro code  0x0000abc4      0x2  Panic.o [1]
  .rodata            const    0x0000abc6      0x1  ble_controller_task.o [1]
  .rodata            const    0x0000abc7      0x1  ble_controller_task.o [1]
  .text              ro code  0x0000abc8    0x4da  fsl_clock.o [1]
  .rodata            const    0x0000b0a2      0x1  ble_controller_task.o [1]
  .rodata            const    0x0000b0a3      0x1  board.o [1]
  .text              ro code  0x0000b0a4      0x2  I64DivZer.o [8]
  .rodata            const    0x0000b0a6      0x1  fsl_os_abstraction_bm.o [1]
  .rodata            const    0x0000b0a7      0x1  fsl_xcvr_trim.o [1]
  .text              ro code  0x0000b0a8     0x14  uwrite4.o [8]
  .text              ro code  0x0000b0bc     0x16  uread4.o [8]
  .text              ro code  0x0000b0d2     0xe8  GenericList.o [1]
  .text              ro code  0x0000b1ba    0x314  big_integer.o [6]
  .text              ro code  0x0000b4d0   0x10bc  ec_p_256.o [6]
  .text              ro code  0x0000c58c     0x9c  fsl_common.o [1]
  .text              ro code  0x0000c628    0x450  board.o [1]
  .text              ro code  0x0000ca78      0x2  IntDivZer.o [8]
  .text              ro code  0x0000ca7c    0x786  ApplMain.o [1]
  .text              ro code  0x0000d204    0xb08  l2ca_signaling.o [4]
  .text              ro code  0x0000dd0c    0x728  att.o [4]
  .text              ro code  0x0000e434     0x1e  U64Shr.o [8]
  .text              ro code  0x0000e454    0x21e  fsl_tpm.o [1]
  .text              ro code  0x0000e674    0x392  fsl_debug_console.o [1]
  .text              ro code  0x0000ea08    0x248  clock_config.o [1]
  .text              ro code  0x0000ec50     0xdc  Flash_Adapter.o [1]
  .text              ro code  0x0000ed2c    0x64c  GPIO_Adapter.o [1]
  .text              ro code  0x0000f378    0x2e4  fsl_adc16.o [1]
  .text              ro code  0x0000f65c      0x6  fsl_pmc.o [1]
  .text              ro code  0x0000f664    0x2c8  LED.o [1]
  .text              ro code  0x0000f92c    0x2b8  Keyboard.o [1]
  .text              ro code  0x0000fbe4    0xa0c  wireless_uart.o [1]
  .text              ro code  0x000105f0     0x68  ble_init.o [1]
  .text              ro code  0x00010658    0x450  gap_api2msg.o [4]
  .text              ro code  0x00010aa8    0x27c  gatt_api2msg.o [4]
  .text              ro code  0x00010d24   0x12e8  gap.o [4]
  .text              ro code  0x0001200c    0x944  att_cb.o [4]
  .text              ro code  0x00012950     0x10  strlen.o [8]
  .text              ro code  0x00012960     0x64  fsl_gpio.o [1]
  .text              ro code  0x000129c4     0xe8  pin_mux.o [1]
  .text              ro code  0x00012aac    0x7d0  SerialManager.o [1]
  .text              ro code  0x0001327c    0x1bc  ble_conn_manager.o [1]
  .text              ro code  0x00013438    0x378  ble_service_discovery.o [1]
  .text              ro code  0x000137b0     0x30  wireless_uart_service.o [1]
  .text              ro code  0x000137e0     0xc0  battery_service.o [1]
  .text              ro code  0x000138a0    0xd02  fsl_xcvr.o [1]
  .text              ro code  0x000145a4    0x158  ble_controller_task.o [1]
  .text              ro code  0x000146fc     0xdc  bt_le_bluetooth.o [5]
  .text              ro code  0x000147d8     0x7c  ble_host_tasks.o [1]
  .text              ro code  0x00014854     0x1e  gatt.o [4]
  .text              ro code  0x00014874   0x1be0  gatt_client.o [4]
  .text              ro code  0x00016454    0xa10  gatt_server.o [4]
  .text              ro code  0x00016e64     0xc8  gatt_database.o [1]
  .text              ro code  0x00016f2c    0x3dc  gap_cm.o [4]
  .text              ro code  0x00017308    0xd6c  gatt_db_att.o [4]
  .text              ro code  0x00018074    0x344  UART_Adapter.o [1]
  .text              ro code  0x000183b8    0x218  gatt_db_app.o [4]
  .text              ro code  0x000185d0    0x23c  ifr_radio.o [1]
  .text              ro code  0x0001880c    0xe58  fsl_xcvr_trim.o [1]
  .text              ro code  0x00019664     0x64  llf_task.o [5]
  .text              ro code  0x000196c8      0x2  platform_abs.o [5]
  .text              ro code  0x000196cc    0x1ae  platform_board_init.o [5]
  .text              ro code  0x0001987c     0x4e  hci_td_api.o [5]
  .text              ro code  0x000198cc    0x944  ll.o [5]
  .text              ro code  0x0001a210     0xaa  lec_hci_le_utils.o [5]
  .text              ro code  0x0001a2bc    0x220  hci_td.o [5]
  .text              ro code  0x0001a4dc    0x578  host_hl_task.o [4]
  .text              ro code  0x0001aa54     0xf4  gatt_db_prepare_write_queue.o [4]
  .text              ro code  0x0001ab48    0x464  fsl_lpuart.o [1]
  .text              ro code  0x0001afac     0x36  I32ToFlt.o [7]
  .text              ro code  0x0001afe2     0xaa  FltDiv.o [7]
  .text              ro code  0x0001b08c     0x26  FltCmpLe.o [7]
  .text              ro code  0x0001b0b2    0x116  FltAddSub.o [7]
  .text              ro code  0x0001b1c8     0x3a  FltToS32.o [7]
  .text              ro code  0x0001b202     0xb0  FltMul.o [7]
  .text              ro code  0x0001b2b4     0x3c  roundf.o [7]
  .text              ro code  0x0001b2f0     0x26  FltToU32.o [7]
  .text              ro code  0x0001b318    0x350  ll_tasks.o [5]
  .text              ro code  0x0001b668     0xa0  platform_power_save.o [5]
  .text              ro code  0x0001b708    0x2cc  platform_rf_driver.o [5]
  .text              ro code  0x0001b9d4     0xb8  platform_llh_interface.o [5]
  .text              ro code  0x0001ba8c    0x432  ll_utils.o [5]
  .text              ro code  0x0001bebe      0x4  platform_board_init.o [5]
  .text              ro code  0x0001bec4   0x11e0  llh_api.o [5]
  .text              ro code  0x0001d0a4    0x3a0  ll_advertiser.o [5]
  .text              ro code  0x0001d444    0x38c  ll_scanner.o [5]
  .text              ro code  0x0001d7d0   0x2f50  ll_connection.o [5]
  .text              ro code  0x00020720    0x50c  lec_hci_le_conn_commands.o [5]
  .text              ro code  0x00020c2c    0x590  lec_hci_le_commands.o [5]
  .text              ro code  0x000211bc    0x122  bt_fw_os_al.o [5]
  .text              ro code  0x000212e0     0x4c  lec_hci_le_encryption_commands.o [5]
  .text              ro code  0x0002132c    0x270  lec_hci_le_common_commands.o [5]
  .text              ro code  0x0002159c     0x8e  llh_utils.o [5]
  .text              ro code  0x0002162c   0x137e  ll_pdu.o [5]
  .text              ro code  0x000229ac    0xc12  gap_hci_cb.o [4]
  .text              ro code  0x000235c0    0x480  gap_sm_cb.o [4]
  .text              ro code  0x00023a40     0x56  xfdint.o [7]
  .text              ro code  0x00023a96     0x16  MWS.o [1]
  .text              ro code  0x00023aac    0x554  platform_vendor_cmds.o [5]
  .text              ro code  0x00024000    0x1c4  lec_hci_le.o [5]
  .text              ro code  0x000241c4    0xa94  ll_policies.o [5]
  .text              ro code  0x00024c58     0x1e  lec_hci_le_scan_commands.o [5]
  .text              ro code  0x00024c78    0x194  lec_hci_le_vendor_commands.o [5]
  .text              ro code  0x00024e0c    0x398  lec_hci_br_edr_commands.o [5]
  .text              ro code  0x000251a4    0x340  lec_hci_param_converter.o [5]
  .text              ro code  0x000254e4    0x468  lec_hci_param_validation.o [5]
  .rodata            const    0x0002594c    0x400  fsl_xcvr.o [1]
  .rodata            const    0x00025d4c    0x23c  fsl_xcvr_common_config.o [1]
  .text              ro code  0x00025f88    0x1d0  lz77_init.o [8]
  .text              ro code  0x00026158      0xa  abort.o [3]
  .text              ro code  0x00026164     0x14  exit.o [9]
  .rodata            const    0x00026178     0xbc  sm_states.o [4]
  .rodata            const    0x00026234     0x80  ec_p_256.o [6]
  .rodata            const    0x000262b4     0x68  fsl_xcvr_ant_config.o [1]
  .rodata            const    0x0002631c     0x68  fsl_xcvr_ble_config.o [1]
  .rodata            const    0x00026384     0x68  fsl_xcvr_gfsk_bt_0p3_h_0p5_config.o [1]
  .rodata            const    0x000263ec     0x68  fsl_xcvr_gfsk_bt_0p3_h_0p5_config.o [1]
  .rodata            const    0x00026454     0x68  fsl_xcvr_gfsk_bt_0p3_h_0p5_config.o [1]
  .rodata            const    0x000264bc     0x68  fsl_xcvr_gfsk_bt_0p5_h_0p32_config.o [1]
  .rodata            const    0x00026524     0x68  fsl_xcvr_gfsk_bt_0p5_h_0p32_config.o [1]
  .rodata            const    0x0002658c     0x68  fsl_xcvr_gfsk_bt_0p5_h_0p32_config.o [1]
  .rodata            const    0x000265f4     0x68  fsl_xcvr_gfsk_bt_0p5_h_0p5_config.o [1]
  .rodata            const    0x0002665c     0x68  fsl_xcvr_gfsk_bt_0p5_h_0p5_config.o [1]
  .rodata            const    0x000266c4     0x68  fsl_xcvr_gfsk_bt_0p5_h_0p5_config.o [1]
  .rodata            const    0x0002672c     0x68  fsl_xcvr_gfsk_bt_0p5_h_0p7_config.o [1]
  .rodata            const    0x00026794     0x68  fsl_xcvr_gfsk_bt_0p5_h_0p7_config.o [1]
  .rodata            const    0x000267fc     0x68  fsl_xcvr_gfsk_bt_0p5_h_0p7_config.o [1]
  .rodata            const    0x00026864     0x68  fsl_xcvr_gfsk_bt_0p5_h_1p0_config.o [1]
  .rodata            const    0x000268cc     0x68  fsl_xcvr_gfsk_bt_0p5_h_1p0_config.o [1]
  .rodata            const    0x00026934     0x68  fsl_xcvr_gfsk_bt_0p5_h_1p0_config.o [1]
  .rodata            const    0x0002699c     0x68  fsl_xcvr_gfsk_bt_0p7_h_0p5_config.o [1]
  .rodata            const    0x00026a04     0x68  fsl_xcvr_gfsk_bt_0p7_h_0p5_config.o [1]
  .rodata            const    0x00026a6c     0x68  fsl_xcvr_gfsk_bt_0p7_h_0p5_config.o [1]
  .rodata            const    0x00026ad4     0x68  fsl_xcvr_msk_config.o [1]
  .rodata            const    0x00026b3c     0x68  fsl_xcvr_msk_config.o [1]
  .rodata            const    0x00026ba4     0x68  fsl_xcvr_msk_config.o [1]
  .rodata            const    0x00026c0c     0x68  fsl_xcvr_zgbe_config.o [1]
  .isr_handler       ro code  0x00026c74     0x50  Keyboard.o [1]
  .rodata            const    0x00026cc4     0x48  fsl_xcvr_ant_config.o [1]
  .rodata            const    0x00026d0c     0x48  fsl_xcvr_ble_config.o [1]
  .rodata            const    0x00026d54     0x48  fsl_xcvr_gfsk_bt_0p3_h_0p5_config.o [1]
  .rodata            const    0x00026d9c     0x48  fsl_xcvr_gfsk_bt_0p5_h_0p32_config.o [1]
  .rodata            const    0x00026de4     0x48  fsl_xcvr_gfsk_bt_0p5_h_0p5_config.o [1]
  .rodata            const    0x00026e2c     0x48  fsl_xcvr_gfsk_bt_0p5_h_0p7_config.o [1]
  .rodata            const    0x00026e74     0x48  fsl_xcvr_gfsk_bt_0p5_h_1p0_config.o [1]
  .rodata            const    0x00026ebc     0x48  fsl_xcvr_gfsk_bt_0p7_h_0p5_config.o [1]
  .rodata            const    0x00026f04     0x48  fsl_xcvr_msk_config.o [1]
  .rodata            const    0x00026f4c     0x48  fsl_xcvr_zgbe_config.o [1]
  .rodata            const    0x00026f94     0x40  fsl_xcvr_mode_datarate_config.o [1]
  .rodata            const    0x00026fd4     0x40  fsl_xcvr_mode_datarate_config.o [1]
  .rodata            const    0x00027014     0x40  fsl_xcvr_mode_datarate_config.o [1]
  .rodata            const    0x00027054     0x40  fsl_xcvr_zgbe_config.o [1]
  .text              ro code  0x00027094     0x3c  zero_init3.o [8]
  .rodata            const    0x000270d0     0x34  board.o [1]
  .rodata            const    0x00027104     0x34  fsl_adc16.o [1]
  .rodata            const    0x00027138     0x34  fsl_clock.o [1]
  .rodata            const    0x0002716c     0x34  fsl_gpio.o [1]
  .rodata            const    0x000271a0     0x34  fsl_lpuart.o [1]
  .rodata            const    0x000271d4     0x34  fsl_tpm.o [1]
  .rodata            const    0x00027208     0x34  fsl_trng.o [1]
  .rodata            const    0x0002723c     0x34  GPIO_Adapter.o [1]
  .rodata            const    0x00027270     0x30  fsl_tpm.o [1]
  .rodata            const    0x000272a0     0x2c  fsl_common.o [1]
  .rodata            const    0x000272cc     0x28  fsl_lpuart.o [1]
  .text              ro code  0x000272f4     0x28  data_init.o [8]
  .text              ro code  0x0002731c     0x26  ll_isr.o [5]
  .text              ro code  0x00027342      0x4  ll_isr.o [5]
  .rodata            const    0x00027348     0x24  fsl_adc16.o [1]
  .rodata            const    0x0002736c     0x24  fsl_trng.o [1]
  .iar.init_table    const    0x00027390     0x2c  - Linker created -
  .rodata            const    0x000273bc     0x20  fsl_adc16.o [1]
  .rodata            const    0x000273dc     0x20  ModuleInfo.o [1]
  .text              ro code  0x000273fc     0x20  lec_hci_le_adv_commands.o [5]
  .rodata            const    0x0002741c     0x1c  board.o [1]
  .rodata            const    0x00027438     0x1c  fsl_tpm.o [1]
  .rodata            const    0x00027454     0x1c  fsl_xcvr_trim.o [1]
  .text              ro code  0x00027470     0x1a  cmain.o [8]
  .text              ro code  0x0002748a      0x4  low_level_init.o [3]
  .text              ro code  0x0002748e      0x8  exit.o [3]
  .text              ro code  0x00027498      0xa  cexit.o [8]
  .rodata            const    0x000274a4     0x18  app_config.o [1]
  .rodata            const    0x000274bc     0x18  fsl_lpuart.o [1]
  .rodata            const    0x000274d4     0x18  fsl_xcvr.o [1]
  .rodata            const    0x000274ec     0x14  SerialManager.o [1]
  .rodata            const    0x00027500     0x10  battery_service.o [1]
  .rodata            const    0x00027510     0x10  ble_controller_task.o [1]
  .rodata            const    0x00027520     0x10  fsl_adc16.o [1]
  .rodata            const    0x00027530     0x10  fsl_clock.o [1]
  .rodata            const    0x00027540     0x10  fsl_clock.o [1]
  .rodata            const    0x00027550     0x10  fsl_lpuart.o [1]
  .rodata            const    0x00027560     0x10  ifr_radio.o [1]
  .rodata            const    0x00027570     0x10  SecLib.o [1]
  .rodata            const    0x00027580     0x10  host_version.o [4]
  .VERSION_TAGS      const    0x00027590      0xc  ModuleInfo.o [1]
  .VERSION_TAGS      const    0x0002759c      0xc  host_version.o [4]
  .rodata            const    0x000275a8      0xc  ble_host_tasks.o [1]
  .rodata            const    0x000275b4      0xc  Flash_Adapter.o [1]
  .rodata            const    0x000275c0      0xc  fsl_clock.o [1]
  .rodata            const    0x000275cc      0xc  fsl_os_abstraction_bm.o [1]
  .rodata            const    0x000275d8      0xc  fsl_os_abstraction_bm.o [1]
  .rodata            const    0x000275e4      0xc  fsl_tpm.o [1]
  .rodata            const    0x000275f0      0xc  fsl_tpm.o [1]
  .rodata            const    0x000275fc      0xc  GPIO_Adapter.o [1]
  .rodata            const    0x00027608      0xc  GPIO_Adapter.o [1]
  .rodata            const    0x00027614      0xc  TimersManager.o [1]
  .rodata            const    0x00027620      0xc  TMR_Adapter.o [1]
  .text              ro code  0x0002762c      0xc  cstartup_M.o [8]
  .rodata            const    0x00027638      0x8  app_config.o [1]
  .rodata            const    0x00027640      0x8  ble_controller_task.o [1]
  .rodata            const    0x00027648      0x8  clock_config.o [1]
  .rodata            const    0x00027650      0x8  clock_config.o [1]
  .rodata            const    0x00027658      0x8  clock_config.o [1]
  .rodata            const    0x00027660      0x8  fsl_gpio.o [1]
  .rodata            const    0x00027668      0x8  fsl_lpuart.o [1]
  .rodata            const    0x00027670      0x8  fsl_tpm.o [1]
  .rodata            const    0x00027678      0x8  GPIO_Adapter.o [1]
  .rodata            const    0x00027680      0x4  board.o [1]
  .rodata            const    0x00027684      0x4  fsl_adc16.o [1]
  .rodata            const    0x00027688      0x4  fsl_adc16.o [1]
  .rodata            const    0x0002768c      0x4  fsl_lpuart.o [1]
  .rodata            const    0x00027690      0x4  fsl_lpuart.o [1]
  .rodata            const    0x00027694      0x4  fsl_trng.o [1]
  .rodata            const    0x00027698      0x4  fsl_trng.o [1]
  .rodata            const    0x0002769c      0x4  TMR_Adapter.o [1]
  .rodata            const    0x000276a0      0x4  ecdh.o [6]
  Initializer bytes  const    0x000276a4    0x3e1  <for P2 s0>
                            - 0x00027a85  0x27675

"P2", part 1 of 2:                          0x645
  P2 s0                       0x20000000    0x645  <Init block>
    .data            inited   0x20000000    0x1e0  gatt_database.o [1]
    .data            inited   0x200001e0     0x38  platform_board_init.o [5]
    .data            inited   0x20000218     0x30  gap_cm.o [4]
    .data            inited   0x20000248     0x28  fsl_xcvr.o [1]
    .data            inited   0x20000270     0x28  fsl_xcvr.o [1]
    .data            inited   0x20000298     0x28  fsl_xcvr.o [1]
    .data            inited   0x200002c0     0x28  MemManager.o [1]
    .data            inited   0x200002e8     0x28  hci_commands.o [4]
    .data            inited   0x20000310     0x20  app_config.o [1]
    .data            inited   0x20000330     0x20  ble_controller_task.o [1]
    .data            inited   0x20000350     0x20  ble_host_tasks.o [1]
    .data            inited   0x20000370     0x20  fsl_os_abstraction_bm.o [1]
    .data            inited   0x20000390     0x20  SerialManager.o [1]
    .data            inited   0x200003b0     0x20  TimersManager.o [1]
    .data            inited   0x200003d0     0x1c  app_config.o [1]
    .data            inited   0x200003ec     0x1c  gpio_pins.o [1]
    .data            inited   0x20000408     0x18  wireless_uart.o [1]
    .data            inited   0x20000420     0x14  gatt_database.o [1]
    .data            inited   0x20000434     0x14  gatt_database.o [1]
    .data            inited   0x20000448     0x14  wireless_uart.o [1]
    .data            inited   0x2000045c     0x14  wireless_uart.o [1]
    .data            inited   0x20000470     0x14  wireless_uart.o [1]
    .data            inited   0x20000484     0x14  wireless_uart.o [1]
    .data            inited   0x20000498     0x14  wireless_uart.o [1]
    .data            inited   0x200004ac     0x14  sm_debug.o [4]
    .data            inited   0x200004c0     0x10  app_config.o [1]
    .data            inited   0x200004d0     0x10  app_config.o [1]
    .data            inited   0x200004e0     0x10  app_config.o [1]
    .data            inited   0x200004f0     0x10  app_config.o [1]
    .data            inited   0x20000500     0x10  gatt_database.o [1]
    .data            inited   0x20000510     0x10  gatt_database.o [1]
    .data            inited   0x20000520     0x10  gatt_database.o [1]
    .data            inited   0x20000530      0xc  app_config.o [1]
    .data            inited   0x2000053c      0xc  gatt_database.o [1]
    .data            inited   0x20000548      0xc  TMR_Adapter.o [1]
    .data            inited   0x20000554      0x8  app_config.o [1]
    .data            inited   0x2000055c      0x8  app_config.o [1]
    .data            inited   0x20000564      0x8  app_config.o [1]
    .data            inited   0x2000056c      0x8  gatt_database.o [1]
    .data            inited   0x20000574      0x8  gatt_database.o [1]
    .data            inited   0x2000057c      0x8  gatt_database.o [1]
    .data            inited   0x20000584      0x8  gatt_database.o [1]
    .data            inited   0x2000058c      0x8  gatt_database.o [1]
    .data            inited   0x20000594      0x8  gatt_database.o [1]
    .data            inited   0x2000059c      0x8  gatt_database.o [1]
    .data            inited   0x200005a4      0x8  gatt_database.o [1]
    .data            inited   0x200005ac      0x8  gatt_database.o [1]
    .data            inited   0x200005b4      0x8  gatt_database.o [1]
    .data            inited   0x200005bc      0x8  gatt_database.o [1]
    .data            inited   0x200005c4      0x8  gatt_database.o [1]
    .data            inited   0x200005cc      0x8  gatt_database.o [1]
    .data            inited   0x200005d4      0x8  gatt_database.o [1]
    .data            inited   0x200005dc      0x8  gpio_pins.o [1]
    .data            inited   0x200005e4      0x4  fsl_clock.o [1]
    .data            inited   0x200005e8      0x4  fsl_clock.o [1]
    .data            inited   0x200005ec      0x4  gatt_database.o [1]
    .data            inited   0x200005f0      0x4  gatt_database.o [1]
    .data            inited   0x200005f4      0x4  GPIO_Adapter.o [1]
    .data            inited   0x200005f8      0x4  ModuleInfo.o [1]
    .data            inited   0x200005fc      0x4  RNG.o [1]
    .data            inited   0x20000600      0x4  system_MKW41Z4.o [1]
    .data            inited   0x20000604      0x4  TimersManager.o [1]
    .data            inited   0x20000608      0x4  UART_Adapter.o [1]
    .data            inited   0x2000060c      0x4  wireless_uart.o [1]
    .data            inited   0x20000610      0x4  host_version.o [4]
    .data            inited   0x20000614      0x4  SW_RNG.o [6]
    .data            inited   0x20000618      0x4  gap.o [4]
    .data            inited   0x2000061c      0x4  platform_rf_driver.o [5]
    .data            inited   0x20000620      0x3  platform_board_init.o [5]
    .data            inited   0x20000623      0x1  ble_globals.o [1]
    .data            inited   0x20000624      0x2  ble_globals.o [1]
    .data            inited   0x20000626      0x2  ble_globals.o [1]
    .data            inited   0x20000628      0x2  ble_globals.o [1]
    .data            inited   0x2000062a      0x2  ble_globals.o [1]
    .data            inited   0x2000062c      0x2  fsl_xcvr.o [1]
    .data            inited   0x2000062e      0x2  fsl_xcvr.o [1]
    .data            inited   0x20000630      0x2  gatt_database.o [1]
    .data            inited   0x20000632      0x2  gatt_database.o [1]
    .data            inited   0x20000634      0x2  gatt_database.o [1]
    .data            inited   0x20000636      0x2  gatt_database.o [1]
    .data            inited   0x20000638      0x2  wireless_uart.o [1]
    .data            inited   0x2000063a      0x2  wireless_uart.o [1]
    .data            inited   0x2000063c      0x1  ble_globals.o [1]
    .data            inited   0x2000063d      0x1  ble_globals.o [1]
    .data            inited   0x2000063e      0x1  gatt_database.o [1]
    .data            inited   0x2000063f      0x1  Keyboard.o [1]
    .data            inited   0x20000640      0x1  LED.o [1]
    .data            inited   0x20000641      0x1  LED.o [1]
    .data            inited   0x20000642      0x1  UART_Adapter.o [1]
    .data            inited   0x20000643      0x1  gap.o [4]
    .data            inited   0x20000644      0x1  gap.o [4]
                            - 0x20000645    0x645

"P2", part 2 of 2:                         0x91d4
  .bss               zero     0x20000648   0x6540  MemManager.o [1]
  .bss               zero     0x20006b88    0x6c0  ApplMain.o [1]
  .bss               zero     0x20007248    0x5e4  SerialManager.o [1]
  .bss               zero     0x2000782c    0x440  device_db.o [4]
  .bss               zero     0x20007c6c    0x2e8  ble_globals.o [1]
  .bss               zero     0x20007f54     0x7c  l2ca_resource_manager.o [4]
  .bss               zero     0x20007fd0    0x288  ll.o [5]
  .bss               zero     0x20008258    0x240  gatt_client.o [4]
  .bss               zero     0x20008498    0x1e4  ll_tasks.o [5]
  .bss               zero     0x2000867c     0x74  att_cb.o [4]
  .bss               zero     0x200086f0    0x120  TimersManager.o [1]
  .bss               zero     0x20008810    0x110  gap_cm.o [4]
  .bss               zero     0x20008920     0xf8  att.o [4]
  .bss               zero     0x20008a18     0xf8  gap_cm.o [4]
  .bss               zero     0x20008b10     0xf8  att_cb.o [4]
  .bss               zero     0x20008c08     0xf4  gatt_database.o [1]
  .bss               zero     0x20008cfc     0xe0  ble_globals.o [1]
  .bss               zero     0x20008ddc     0xd8  device_db.o [4]
  .bss               zero     0x20008eb4     0xc8  fsl_xcvr_trim.o [1]
  .bss               zero     0x20008f7c     0xbc  gap.o [4]
  .bss               zero     0x20009038     0xac  ll.o [5]
  .bss               zero     0x200090e4     0x90  sm_core.o [4]
  .bss               zero     0x20009174     0x8c  fsl_os_abstraction_bm.o [1]
  .bss               zero     0x20009200     0x8c  fsl_os_abstraction_bm.o [1]
  .bss               zero     0x2000928c     0x8c  hci_td_api.o [5]
  .bss               zero     0x20009318     0x5c  ble_conn_manager.o [1]
  .bss               zero     0x20009374     0x50  MemManager.o [1]
  .bss               zero     0x200093c4     0x4c  Flash_Adapter.o [1]
  .bss               zero     0x20009410     0x44  ll_utils.o [5]
  .bss               zero     0x20009454     0x40  lec_hci_le.o [5]
  .bss               zero     0x20009494     0x3c  GPIO_Adapter.o [1]
  .bss               zero     0x200094d0     0x30  ll_advertiser.o [5]
  .bss               zero     0x20009500     0x24  gap.o [4]
  .bss               zero     0x20009524     0x20  SerialManager.o [1]
  .bss               zero     0x20009544     0x20  gap.o [4]
  .bss               zero     0x20009564     0x1d  bt_le_bluetooth.o [5]
  .bss               zero     0x20009582      0x2  fsl_xcvr_trim.o [1]
  .bss               zero     0x20009584     0x18  device_db.o [4]
  .bss               zero     0x2000959c     0x14  ble_globals.o [1]
  .bss               zero     0x200095b0     0x14  ble_globals.o [1]
  .bss               zero     0x200095c4     0x14  ble_service_discovery.o [1]
  .bss               zero     0x200095d8     0x14  RNG.o [1]
  .bss               zero     0x200095ec     0x10  fsl_debug_console.o [1]
  .bss               zero     0x200095fc     0x10  gatt_database.o [1]
  .bss               zero     0x2000960c     0x10  Keyboard.o [1]
  .bss               zero     0x2000961c     0x10  gap.o [4]
  .bss               zero     0x2000962c     0x10  gap.o [4]
  .bss               zero     0x2000963c     0x10  gatt_client.o [4]
  .bss               zero     0x2000964c     0x10  gatt_server.o [4]
  .bss               zero     0x2000965c      0xc  ApplMain.o [1]
  .bss               zero     0x20009668      0xc  ApplMain.o [1]
  .bss               zero     0x20009674      0xc  ble_host_tasks.o [1]
  .bss               zero     0x20009680      0xc  ble_host_tasks.o [1]
  .bss               zero     0x2000968c      0xc  board.o [1]
  .bss               zero     0x20009698      0xc  TimersManager.o [1]
  .bss               zero     0x200096a4      0xc  bt_le_bluetooth.o [5]
  .bss               zero     0x200096b0      0xc  hci_commands.o [4]
  .bss               zero     0x200096bc      0xc  att.o [4]
  .bss               zero     0x200096c8      0xc  gap_hci_cb.o [4]
  .bss               zero     0x200096d4      0xc  ll_advertiser.o [5]
  .bss               zero     0x200096e0      0xa  platform_power_save.o [5]
  .bss               zero     0x200096ea      0x2  fsl_xcvr_trim.o [1]
  .bss               zero     0x200096ec      0x8  app_config.o [1]
  .bss               zero     0x200096f4      0x8  ble_conn_manager.o [1]
  .bss               zero     0x200096fc      0x8  wireless_uart.o [1]
  .bss               zero     0x20009704      0x4  ApplMain.o [1]
  .bss               zero     0x20009708      0x8  l2ca_resource_manager.o [4]
  .bss               zero     0x20009710      0x8  gap.o [4]
  .bss               zero     0x20009718      0x8  gap.o [4]
  .bss               zero     0x20009720      0x8  gatt_db_prepare_write_queue.o [4]
  .bss               zero     0x20009728      0x4  ApplMain.o [1]
  .bss               zero     0x2000972c      0x4  ApplMain.o [1]
  .bss               zero     0x20009730      0x4  ApplMain.o [1]
  .bss               zero     0x20009734      0x4  ApplMain.o [1]
  .bss               zero     0x20009738      0x4  ApplMain.o [1]
  .bss               zero     0x2000973c      0x4  ApplMain.o [1]
  .bss               zero     0x20009740      0x4  ApplMain.o [1]
  .bss               zero     0x20009744      0x4  ApplMain.o [1]
  .bss               zero     0x20009748      0x4  ApplMain.o [1]
  .bss               zero     0x2000974c      0x4  ApplMain.o [1]
  .bss               zero     0x20009750      0x4  ble_controller_task.o [1]
  .bss               zero     0x20009754      0x4  ble_controller_task.o [1]
  .bss               zero     0x20009758      0x4  ble_host_tasks.o [1]
  .bss               zero     0x2000975c      0x4  ble_host_tasks.o [1]
  .bss               zero     0x20009760      0x4  ble_service_discovery.o [1]
  .bss               zero     0x20009764      0x4  board.o [1]
  .bss               zero     0x20009768      0x4  fsl_clock.o [1]
  .bss               zero     0x2000976c      0x4  fsl_clock.o [1]
  .bss               zero     0x20009770      0x4  fsl_os_abstraction_bm.o [1]
  .bss               zero     0x20009774      0x4  fsl_os_abstraction_bm.o [1]
  .bss               zero     0x20009778      0x4  fsl_os_abstraction_bm.o [1]
  .bss               zero     0x2000977c      0x4  fsl_os_abstraction_bm.o [1]
  .bss               zero     0x20009780      0x4  fsl_xcvr.o [1]
  .bss               zero     0x20009784      0x4  fsl_xcvr.o [1]
  .bss               zero     0x20009788      0x4  fsl_xcvr_trim.o [1]
  .bss               zero     0x2000978c      0x4  fsl_xcvr_trim.o [1]
  .bss               zero     0x20009790      0x4  fsl_xcvr_trim.o [1]
  .bss               zero     0x20009794      0x4  gatt_database.o [1]
  .bss               zero     0x20009798      0x4  ifr_radio.o [1]
  .bss               zero     0x2000979c      0x4  Keyboard.o [1]
  .bss               zero     0x200097a0      0x4  Keyboard.o [1]
  .bss               zero     0x200097a4      0x4  Keyboard.o [1]
  .bss               zero     0x200097a8      0x4  LED.o [1]
  .bss               zero     0x200097ac      0x4  SerialManager.o [1]
  .bss               zero     0x200097b0      0x4  SerialManager.o [1]
  .bss               zero     0x200097b4      0x4  TimersManager.o [1]
  .bss               zero     0x200097b8      0x4  TimersManager.o [1]
  .bss               zero     0x200097bc      0x4  TimersManager.o [1]
  .bss               zero     0x200097c0      0x4  UART_Adapter.o [1]
  .bss               zero     0x200097c4      0x4  wireless_uart.o [1]
  .bss               zero     0x200097c8      0x4  wireless_uart.o [1]
  .bss               zero     0x200097cc      0x4  platform_board_init.o [5]
  .bss               zero     0x200097d0      0x4  bt_le_bluetooth.o [5]
  .bss               zero     0x200097d4      0x4  gap.o [4]
  .bss               zero     0x200097d8      0x4  gatt_client.o [4]
  .bss               zero     0x200097dc      0x4  gatt_client.o [4]
  .bss               zero     0x200097e0      0x4  llh_api.o [5]
  .bss               zero     0x200097e4      0x4  att_cb.o [4]
  .bss               zero     0x200097e8      0x2  fsl_xcvr_trim.o [1]
  .bss               zero     0x200097ea      0x2  gatt_database.o [1]
  .bss               zero     0x200097ec      0x2  gatt_database.o [1]
  .bss               zero     0x200097ee      0x2  gatt_database.o [1]
  .bss               zero     0x200097f0      0x2  gatt_database.o [1]
  .bss               zero     0x200097f2      0x2  GPIO_Adapter.o [1]
  .bss               zero     0x200097f4      0x2  MemManager.o [1]
  .bss               zero     0x200097f6      0x2  TimersManager.o [1]
  .bss               zero     0x200097f8      0x2  TimersManager.o [1]
  .bss               zero     0x200097fa      0x2  TimersManager.o [1]
  .bss               zero     0x200097fc      0x1  ApplMain.o [1]
  .bss               zero     0x200097fd      0x1  battery_service.o [1]
  .bss               zero     0x200097fe      0x1  ble_globals.o [1]
  .bss               zero     0x200097ff      0x1  board.o [1]
  .bss               zero     0x20009800      0x1  gatt_database.o [1]
  .bss               zero     0x20009801      0x1  Keyboard.o [1]
  .bss               zero     0x20009802      0x1  Keyboard.o [1]
  .bss               zero     0x20009803      0x1  LED.o [1]
  .bss               zero     0x20009804      0x1  LED.o [1]
  .bss               zero     0x20009805      0x1  RNG.o [1]
  .bss               zero     0x20009806      0x1  SerialManager.o [1]
  .bss               zero     0x20009807      0x1  SerialManager.o [1]
  .bss               zero     0x20009808      0x1  TimersManager.o [1]
  .bss               zero     0x20009809      0x1  TimersManager.o [1]
  .bss               zero     0x2000980a      0x1  TimersManager.o [1]
  .bss               zero     0x2000980b      0x1  TimersManager.o [1]
  .bss               zero     0x2000980c      0x1  TimersManager.o [1]
  .bss               zero     0x2000980d      0x1  wireless_uart.o [1]
  .bss               zero     0x2000980e      0x1  wireless_uart.o [1]
  .bss               zero     0x2000980f      0x1  wireless_uart.o [1]
  .bss               zero     0x20009810      0x1  wireless_uart.o [1]
  .bss               zero     0x20009811      0x1  wireless_uart.o [1]
  .bss               zero     0x20009812      0x1  wireless_uart.o [1]
  .bss               zero     0x20009813      0x1  wireless_uart_service.o [1]
  .bss               zero     0x20009814      0x1  gap.o [4]
  .bss               zero     0x20009815      0x1  gap.o [4]
  .bss               zero     0x20009816      0x1  gap.o [4]
  .bss               zero     0x20009817      0x1  gatt_server.o [4]
  .bss               zero     0x20009818      0x1  platform_abs.o [5]
  .bss               zero     0x20009819      0x1  ll.o [5]
  .bss               zero     0x2000981a      0x1  ll.o [5]
  .bss               zero     0x2000981b      0x1  l2ca_main.o [4]
                            - 0x2000981c   0x91d4

"P4":                                       0x400
  CSTACK                      0x20017c00    0x400  <Block>
    CSTACK           uninit   0x20017c00    0x400  <Block tail>
                            - 0x20018000    0x400


*******************************************************************************
*** INIT TABLE
***

          Address     Size
          -------     ----
Zero (__iar_zero_init3)
    1 destination range, total size 0x91d4:
          0x20000648  0x91d4

Copy/lz77 (__iar_lz77_init3)
    1 source range, total size 0x3e1 (61% of destination):
          0x000276a4   0x3e1
    1 destination range, total size 0x645:
          0x20000000   0x645



*******************************************************************************
*** MODULE SUMMARY
***

    Module                                ro code  ro data  rw data
    ------                                -------  -------  -------
E:\Tracy\NXP\KW41Z\资料\bm\bm\debug\obj: [1]
    ApplMain.o                              1 926             1 797
    Flash_Adapter.o                           220       12       76
    FunctionLib.o                              98
    GPIO_Adapter.o                          1 612       87       66
    GenericList.o                             232
    Keyboard.o                                776                31
    LED.o                                     712        2        8
    MWS.o                                      22
    MemManager.o                              344       25   26 042
    Messaging.o                                60
    ModuleInfo.o                                        46        4
    Panic.o                                     2
    RNG.o                                     520        3       25
    SecLib.o                                1 564       16
    SerialManager.o                         2 000       40    1 582
    TMR_Adapter.o                             448       23       12
    TimersManager.o                         1 940       34      359
    UART_Adapter.o                            836        2        9
    app_config.o                                       132      168
    battery_service.o                         192       16        1
    ble_conn_manager.o                        444               100
    ble_controller_task.o                     344       50       40
    ble_globals.o                                        7    1 020
    ble_host_tasks.o                          124       32       64
    ble_init.o                                104
    ble_service_discovery.o                   888                24
    board.o                                 1 104       85       17
    clock_config.o                            584       24
    fsl_adc16.o                               740      144
    fsl_clock.o                             1 242      101       16
    fsl_common.o                              156       44
    fsl_debug_console.o                       914                16
    fsl_gpio.o                                100       60
    fsl_lpuart.o                            1 124      148
    fsl_ltc.o                               2 960
    fsl_os_abstraction_bm.o                   804       45      328
    fsl_pmc.o                                   6
    fsl_tpm.o                                 542      160
    fsl_trng.o                              1 586       96
    fsl_xcvr.o                              3 330    1 125      132
    fsl_xcvr_ant_config.o                              176
    fsl_xcvr_ble_config.o                              176
    fsl_xcvr_common_config.o                           572
    fsl_xcvr_gfsk_bt_0p3_h_0p5_config.o                384
    fsl_xcvr_gfsk_bt_0p5_h_0p32_config.o               384
    fsl_xcvr_gfsk_bt_0p5_h_0p5_config.o                384
    fsl_xcvr_gfsk_bt_0p5_h_0p7_config.o                384
    fsl_xcvr_gfsk_bt_0p5_h_1p0_config.o                384
    fsl_xcvr_gfsk_bt_0p7_h_0p5_config.o                384
    fsl_xcvr_mode_datarate_config.o                    192
    fsl_xcvr_msk_config.o                              384
    fsl_xcvr_trim.o                         3 672       29      218
    fsl_xcvr_zgbe_config.o                             240
    gatt_database.o                           200      438      982
    gpio_pins.o                                         21       36
    ifr_radio.o                               572       16        4
    pin_mux.o                                 232
    system_MKW41Z4.o                                     2        4
    wireless_uart.o                         2 572       82      154
    wireless_uart_service.o                    48                 1
    ---------------------------------------------------------------
    Total:                                 37 896    7 191   33 336

command line: [2]
    ---------------------------------------------------------------
    Total:

dl6M_tln.a: [3]
    abort.o                                    10
    exit.o                                      8
    low_level_init.o                            4
    ---------------------------------------------------------------
    Total:                                     22

lib_ble_4-2_host_cm0p.a: [4]
    att.o                                   1 832               260
    att_cb.o                                2 372               368
    device_db.o                             2 112             1 328
    gap.o                                   4 840        4      317
    gap_api2msg.o                           1 104
    gap_cm.o                                  988       30      568
    gap_hci_cb.o                            3 090                12
    gap_sm_cb.o                             1 152
    gatt.o                                     30
    gatt_api2msg.o                            636
    gatt_client.o                           7 136               600
    gatt_db_app.o                             536
    gatt_db_att.o                           3 436
    gatt_db_prepare_write_queue.o             244                 8
    gatt_server.o                           2 576                17
    hci_commands.o                          4 492       25       52
    host_hl_task.o                          1 400
    host_version.o                                      30        4
    l2ca_main.o                               372                 1
    l2ca_resource_manager.o                 1 856               132
    l2ca_signaling.o                        2 824
    sm_core.o                               1 752               144
    sm_crypto.o                             1 132
    sm_debug.o                                 48       13       20
    sm_packet_op.o                          1 276
    sm_states.o                            17 232      188
    sm_states_hci.o                           456
    sm_states_tb.o                            648
    ---------------------------------------------------------------
    Total:                                 65 572      290    3 831

lib_ble_kw41z_controller.a: [5]
    bt_fw_os_al.o                             290
    bt_le_bluetooth.o                         220                45
    hci_td.o                                  544
    hci_td_api.o                               78               140
    lec_hci_br_edr_commands.o                 920
    lec_hci_le.o                              452                64
    lec_hci_le_adv_commands.o                  32
    lec_hci_le_commands.o                   1 424
    lec_hci_le_common_commands.o              624
    lec_hci_le_conn_commands.o              1 292
    lec_hci_le_encryption_commands.o           76
    lec_hci_le_scan_commands.o                 30
    lec_hci_le_utils.o                        170
    lec_hci_le_vendor_commands.o              404
    lec_hci_param_converter.o                 832
    lec_hci_param_validation.o              1 128
    ll.o                                    2 372               822
    ll_advertiser.o                           928                60
    ll_connection.o                        12 112
    ll_isr.o                                   42
    ll_pdu.o                                4 990
    ll_policies.o                           2 708
    ll_scanner.o                              908
    ll_tasks.o                                848               484
    ll_utils.o                              1 074                68
    llf_task.o                                100
    llh_api.o                               4 576                 4
    llh_utils.o                               142
    platform_abs.o                              2                 1
    platform_board_init.o                     434       36       63
    platform_llh_interface.o                  184
    platform_power_save.o                     160                10
    platform_rf_driver.o                      716        3        4
    platform_vendor_cmds.o                  1 364
    ---------------------------------------------------------------
    Total:                                 42 176       39    1 765

lib_crypto_m0.a: [6]
    SW_RNG.o                                   56        3        4
    SW_SHA1.o                                 472
    big_integer.o                             788
    ec_p_256.o                              4 284      128
    ecdh.o                                    214        4
    ---------------------------------------------------------------
    Total:                                  5 814      135        4

m6M_tl.a: [7]
    FltAddSub.o                               278
    FltCmpLe.o                                 38
    FltDiv.o                                  170
    FltMul.o                                  176
    FltToS32.o                                 58
    FltToU32.o                                 38
    I32ToFlt.o                                 54
    roundf.o                                   60
    xfdint.o                                   86
    ---------------------------------------------------------------
    Total:                                    958

rt6M_tl.a: [8]
    ABImemcpy.o                                52
    ABImemset.o                                52
    I32DivModFast.o                           224
    I64DivMod.o                               106
    I64DivZer.o                                 2
    I64Mul.o                                   50
    IntDivZer.o                                 2
    U64Shr.o                                   30
    cexit.o                                    10
    cmain.o                                    26
    cstartup_M.o                               12
    data_init.o                                40
    lz77_init.o                               464
    strlen.o                                   16
    uread4.o                                   22
    uwrite4.o                                  20
    vector_table_M.o                           66
    zero_init3.o                               60
    ---------------------------------------------------------------
    Total:                                  1 254

shb_l.a: [9]
    exit.o                                     20
    ---------------------------------------------------------------
    Total:                                     20

    Gaps                                       46        4        1
    Linker created                                      44    1 024
-------------------------------------------------------------------
    Grand Total:                          153 758    7 703   39 961


*******************************************************************************
*** ENTRY LIST
***

Entry                      Address    Size  Type      Object
-----                      -------    ----  ----      ------
.iar.init_table$$Base   0x00027390           --   Gb  - Linker created -
.iar.init_table$$Limit  0x000273bc           --   Gb  - Linker created -
?main                   0x00027471          Code  Gb  cmain.o [8]
ADC16_BatLvl            0x0000c8d9    0x14  Code  Lc  board.o [1]
ADC16_BgLvl             0x0000c8f5    0x14  Code  Lc  board.o [1]
ADC16_CalibrateParams   0x0000c8b9    0x20  Code  Lc  board.o [1]
ADC16_DoAutoCalibration
                        0x0000f4c5    0xb8  Code  Gb  fsl_adc16.o [1]
ADC16_GetChannelConversionValue
                        0x0000c63b    0x24  Code  Lc  board.o [1]
ADC16_GetChannelStatusFlags
                        0x0000f621    0x2e  Code  Gb  fsl_adc16.o [1]
ADC16_GetDefaultConfig  0x0000f47f    0x3c  Code  Gb  fsl_adc16.o [1]
ADC16_GetInstance       0x0000f38b    0x32  Code  Lc  fsl_adc16.o [1]
ADC16_GetStatusFlags    0x0000f59d    0x20  Code  Gb  fsl_adc16.o [1]
ADC16_Init              0x0000f3bd    0xc2  Code  Gb  fsl_adc16.o [1]
ADC16_ReadValue         0x0000c921    0x4a  Code  Lc  board.o [1]
ADC16_SetChannelConfig  0x0000f5bd    0x56  Code  Gb  fsl_adc16.o [1]
ADC16_SetHardwareAverage
                        0x0000f57d    0x20  Code  Gb  fsl_adc16.o [1]
AES_128_CCM             0x00004eab    0x80  Code  Gb  SecLib.o [1]
AES_128_CMAC            0x00004c71   0x110  Code  Gb  SecLib.o [1]
AES_128_CMAC_Generate_Subkey
                        0x00004f45    0x82  Code  Lc  SecLib.o [1]
AES_128_CMAC_LsbFirstInput
                        0x00004d81   0x12a  Code  Gb  SecLib.o [1]
AES_128_Encrypt         0x00004c4f    0x1c  Code  Gb  SecLib.o [1]
App_AdvertisingCallback
                        0x0000d07d    0x36  Code  Lc  ApplMain.o [1]
App_Connect             0x0000cbe5    0x14  Code  Gb  ApplMain.o [1]
App_ConnectionCallback  0x0000cf65   0x118  Code  Lc  ApplMain.o [1]
App_GattClientProcedureCallback
                        0x0000d1b1    0x3e  Code  Lc  ApplMain.o [1]
App_GattServerCallback  0x0000d135    0x6e  Code  Lc  ApplMain.o [1]
App_GenericCallback     0x0000cf2d    0x38  Code  Lc  ApplMain.o [1]
App_HandleHostMessageInput
                        0x0000ce1b   0x10e  Code  Lc  ApplMain.o [1]
App_KeyboardCallBack    0x0000ce0d     0xe  Code  Lc  ApplMain.o [1]
App_NvmRead             0x0000cd3d    0xa4  Code  Gb  ApplMain.o [1]
App_NvmWrite            0x0000cc8d    0x9c  Code  Gb  ApplMain.o [1]
App_PostCallbackMessage
                        0x0000cc45    0x36  Code  Gb  ApplMain.o [1]
App_RegisterGattClientProcedureCallback
                        0x0000cc35    0x10  Code  Gb  ApplMain.o [1]
App_RegisterGattServerCallback
                        0x0000cc25    0x10  Code  Gb  ApplMain.o [1]
App_ScanningCallback    0x0000d0b3    0x6c  Code  Lc  ApplMain.o [1]
App_StartAdvertising    0x0000cbf9    0x18  Code  Gb  ApplMain.o [1]
App_StartScanning       0x0000cc11    0x14  Code  Gb  ApplMain.o [1]
App_Thread              0x0000cb5f    0x86  Code  Lc  ApplMain.o [1]
AttClient_SendExchangeMtuRequest
                        0x0000ddbd     0xc  Code  Gb  att.o [4]
AttClient_SendExecuteWriteRequest
                        0x0000de4d     0xc  Code  Gb  att.o [4]
AttClient_SendFindByTypeValueRequest
                        0x0000ddd5     0xc  Code  Gb  att.o [4]
AttClient_SendFindInformationRequest
                        0x0000ddc9     0xc  Code  Gb  att.o [4]
AttClient_SendHandleValueConfirmation
                        0x0000de59     0xc  Code  Gb  att.o [4]
AttClient_SendPrepareWriteRequest
                        0x0000de41     0xc  Code  Gb  att.o [4]
AttClient_SendReadBlobRequest
                        0x0000ddf9     0xc  Code  Gb  att.o [4]
AttClient_SendReadByGroupTypeRequest
                        0x0000de11     0xc  Code  Gb  att.o [4]
AttClient_SendReadByTypeRequest
                        0x0000dde1     0xc  Code  Gb  att.o [4]
AttClient_SendReadMultipleRequest
                        0x0000de05     0xc  Code  Gb  att.o [4]
AttClient_SendReadRequest
                        0x0000dded     0xc  Code  Gb  att.o [4]
AttClient_SendSignedWriteCommand
                        0x0000de35     0xc  Code  Gb  att.o [4]
AttClient_SendWriteCommand
                        0x0000de29     0xc  Code  Gb  att.o [4]
AttClient_SendWriteRequest
                        0x0000de1d     0xc  Code  Gb  att.o [4]
AttServer_SendErrorResponse
                        0x0000de65     0xc  Code  Gb  att.o [4]
AttServer_SendExchangeMtuResponse
                        0x0000de71     0xc  Code  Gb  att.o [4]
AttServer_SendExecuteWriteResponse
                        0x0000dee9     0xc  Code  Gb  att.o [4]
AttServer_SendFindByTypeValueResponse
                        0x0000de89     0xc  Code  Gb  att.o [4]
AttServer_SendFindInformationResponse
                        0x0000de7d     0xc  Code  Gb  att.o [4]
AttServer_SendHandleValueIndication
                        0x0000df01     0xc  Code  Gb  att.o [4]
AttServer_SendHandleValueNotification
                        0x0000def5     0xc  Code  Gb  att.o [4]
AttServer_SendPrepareWriteResponse
                        0x0000dedd     0xc  Code  Gb  att.o [4]
AttServer_SendReadBlobResponse
                        0x0000dead     0xc  Code  Gb  att.o [4]
AttServer_SendReadByGroupTypeResponse
                        0x0000dec5     0xc  Code  Gb  att.o [4]
AttServer_SendReadByTypeResponse
                        0x0000de95     0xc  Code  Gb  att.o [4]
AttServer_SendReadMultipleResponse
                        0x0000deb9     0xc  Code  Gb  att.o [4]
AttServer_SendReadResponse
                        0x0000dea1     0xc  Code  Gb  att.o [4]
AttServer_SendWriteResponse
                        0x0000ded1     0xc  Code  Gb  att.o [4]
Att_GetMtu              0x0000dd99    0x20  Code  Gb  att.o [4]
Att_Init                0x0000dd0d    0x10  Code  Gb  att.o [4]
Att_NotifyConnection    0x0000dd1d    0x30  Code  Gb  att.o [4]
Att_NotifyDisconnection
                        0x0000dd4d    0x28  Code  Gb  att.o [4]
Att_RegisterOpcodeCallback
                        0x0001200d    0xec  Code  Gb  att_cb.o [4]
Att_RegisterTimeoutCallback
                        0x00012101     0x8  Code  Gb  att_cb.o [4]
Att_RegisterUnsupportedOpcodeCallback
                        0x000120f9     0x8  Code  Gb  att_cb.o [4]
Att_SetMtu              0x0000dd75    0x24  Code  Gb  att.o [4]
BASE_UUID               0x00018064    0x10  Data  Lc  gatt_db_att.o [4]
BLE_HOST_VERSION        0x0002759c     0xc  Data  Gb  host_version.o [4]
BLE_SignalFromISRCallback
                        0x0000d201     0x2  Code  Lc  ApplMain.o [1]
BLOCK_1_IFR             0x00027560    0x10  Data  Gb  ifr_radio.o [1]
BOARD_BootClockRUN      0x0000eb8b    0x5c  Code  Gb  clock_config.o [1]
BOARD_DCDCInit          0x0000c875     0x2  Code  Gb  board.o [1]
BOARD_GetBatteryLevel   0x0000c7b9    0x4e  Code  Gb  board.o [1]
BOARD_GetLpuartClock    0x0000c9c5    0x3c  Code  Gb  board.o [1]
BOARD_GetMCUUid         0x0000c877    0x3a  Code  Gb  board.o [1]
BOARD_GetTemperature    0x0000c807    0x6a  Code  Gb  board.o [1]
BOARD_GetTpmClock       0x0000ca05    0x3c  Code  Gb  board.o [1]
BOARD_InitAdc           0x0000c78b    0x2e  Code  Gb  board.o [1]
BOARD_InitButtons       0x000129f9    0x1e  Code  Gb  pin_mux.o [1]
BOARD_InitLEDs          0x00012a17    0x48  Code  Gb  pin_mux.o [1]
BOARD_InitLPUART        0x00012a5f    0x2a  Code  Gb  pin_mux.o [1]
BOARD_InitOsc0          0x0000eb6f    0x1c  Code  Gb  clock_config.o [1]
BOARD_RfOscInit         0x0000eaf9    0x76  Code  Gb  clock_config.o [1]
Bas_RecordBatteryMeasurement
                        0x00013805    0x54  Code  Gb  battery_service.o [1]
Bas_SendNotifications   0x00013859    0x3e  Code  Lc  battery_service.o [1]
Bas_Start               0x000137e1    0x10  Code  Gb  battery_service.o [1]
Bas_Subscribe           0x000137f1     0xa  Code  Gb  battery_service.o [1]
Bas_Unsubscribe         0x000137fb     0xa  Code  Gb  battery_service.o [1]
BatteryMeasurementTimerCallback
                        0x000105a1    0x1a  Code  Lc  wireless_uart.o [1]
Bi_Add                  0x0000b1bb    0xae  Code  Gb  big_integer.o [6]
Bi_Compare              0x0000b49d    0x32  Code  Gb  big_integer.o [6]
Bi_Copy                 0x0000b431    0x3e  Code  Gb  big_integer.o [6]
Bi_IsOne                0x0000b393    0x34  Code  Gb  big_integer.o [6]
Bi_IsZero               0x0000b343    0x50  Code  Gb  big_integer.o [6]
Bi_RightShift           0x0000b3c7    0x6a  Code  Gb  big_integer.o [6]
Bi_SetZero              0x0000b46f    0x2e  Code  Gb  big_integer.o [6]
Bi_Sub                  0x0000b269    0xda  Code  Gb  big_integer.o [6]
BleApp_Advertise        0x0000fd15     0xa  Code  Lc  wireless_uart.o [1]
BleApp_AdvertisingCallback
                        0x0000fdcf    0x64  Code  Lc  wireless_uart.o [1]
BleApp_CheckScanEvent   0x0001004f    0x5e  Code  Lc  wireless_uart.o [1]
BleApp_Config           0x0000fcaf    0x66  Code  Lc  wireless_uart.o [1]
BleApp_ConnectionCallback
                        0x0000fe49    0xc6  Code  Lc  wireless_uart.o [1]
BleApp_FlushUartStream  0x00010247   0x2ca  Code  Lc  wireless_uart.o [1]
BleApp_GattClientCallback
                        0x0000ff87    0x42  Code  Lc  wireless_uart.o [1]
BleApp_GattServerCallback
                        0x0000ffc9    0x38  Code  Lc  wireless_uart.o [1]
BleApp_GenericCallback  0x0000fc87    0x28  Code  Gb  wireless_uart.o [1]
BleApp_HandleKeys       0x0000fc41    0x46  Code  Gb  wireless_uart.o [1]
BleApp_Init             0x0000fbe5    0x2e  Code  Gb  wireless_uart.o [1]
BleApp_ReceivedUartStream
                        0x00010511    0x30  Code  Lc  wireless_uart.o [1]
BleApp_ScanningCallback
                        0x0000fd1f    0xb0  Code  Lc  wireless_uart.o [1]
BleApp_SendUartStream   0x000100cb    0x38  Code  Lc  wireless_uart.o [1]
BleApp_ServiceDiscoveryCallback
                        0x0000ff49    0x3e  Code  Lc  wireless_uart.o [1]
BleApp_Start            0x0000fc13    0x2e  Code  Gb  wireless_uart.o [1]
BleApp_StateMachineHandler
                        0x0001010d    0xac  Code  Gb  wireless_uart.o [1]
BleApp_StoreServiceHandles
                        0x000100ad    0x1e  Code  Lc  wireless_uart.o [1]
BleConnManager_GapCentralEvent
                        0x000132ff    0x3a  Code  Gb  ble_conn_manager.o [1]
BleConnManager_GapCommonConfig
                        0x00013339     0x8  Code  Lc  ble_conn_manager.o [1]
BleConnManager_GapDualRoleConfig
                        0x000132b3    0x10  Code  Gb  ble_conn_manager.o [1]
BleConnManager_GapPeripheralEvent
                        0x000132c3    0x3c  Code  Gb  ble_conn_manager.o [1]
BleConnManager_GenericEvent
                        0x0001327d    0x36  Code  Gb  ble_conn_manager.o [1]
BleConnManager_MCUInfoToSmpKeys
                        0x00013341    0xe0  Code  Lc  ble_conn_manager.o [1]
BleServDisc_FindService
                        0x0001343f    0xd8  Code  Gb  ble_service_discovery.o [1]
BleServDisc_Finished    0x00013763    0x28  Code  Lc  ble_service_discovery.o [1]
BleServDisc_NewService  0x0001378b    0x1e  Code  Lc  ble_service_discovery.o [1]
BleServDisc_RegisterCallback
                        0x00013439     0x6  Code  Gb  ble_service_discovery.o [1]
BleServDisc_Reset       0x000136d9    0x8a  Code  Lc  ble_service_discovery.o [1]
BleServDisc_SignalGattClientEvent
                        0x00013549   0x18c  Code  Gb  ble_service_discovery.o [1]
BleServDisc_Stop        0x00013517    0x2c  Code  Gb  ble_service_discovery.o [1]
Ble_HciRecv             0x00007655   0x760  Code  Gb  hci_commands.o [4]
Ble_HostInitialize      0x00010659     0x8  Code  Gb  gap_api2msg.o [4]
Ble_HostTaskInit        0x000147d9    0x5c  Code  Gb  ble_host_tasks.o [1]
Ble_Initialize          0x000105f1    0x68  Code  Gb  ble_init.o [1]
CLOCK_BootToFeeMode     0x0000b07d    0x26  Code  Gb  fsl_clock.o [1]
CLOCK_CONFIG_EnableRtcOsc
                        0x0000eac9    0x30  Code  Lc  clock_config.o [1]
CLOCK_CONFIG_FllStableDelay
                        0x0000ea81    0x12  Code  Lc  clock_config.o [1]
CLOCK_CONFIG_SetRtcClock
                        0x0000ea93    0x36  Code  Lc  clock_config.o [1]
CLOCK_DisableClock      0x0000ea1b    0x12  Code  Lc  clock_config.o [1]
CLOCK_EnableClock       0x0000c629    0x12  Code  Lc  board.o [1]
CLOCK_EnableClock       0x0000ea09    0x12  Code  Lc  clock_config.o [1]
CLOCK_EnableClock       0x0000f379    0x12  Code  Lc  fsl_adc16.o [1]
CLOCK_EnableClock       0x0001ab49    0x12  Code  Lc  fsl_lpuart.o [1]
CLOCK_EnableClock       0x00007e65    0x12  Code  Lc  fsl_ltc.o [1]
CLOCK_EnableClock       0x0000e455    0x12  Code  Lc  fsl_tpm.o [1]
CLOCK_EnableClock       0x00008e65    0x12  Code  Lc  fsl_trng.o [1]
CLOCK_EnableClock       0x000129c5    0x12  Code  Lc  pin_mux.o [1]
CLOCK_GetBusClkFreq     0x0000ad33    0x2c  Code  Gb  fsl_clock.o [1]
CLOCK_GetFllExtRefClkFreq
                        0x0000ac3f    0x6e  Code  Lc  fsl_clock.o [1]
CLOCK_GetFllFreq        0x0000ade5    0x4c  Code  Gb  fsl_clock.o [1]
CLOCK_GetFllFreq::fllFactorTable
                        0x00027540    0x10  Data  Lc  fsl_clock.o [1]
CLOCK_GetFllRefClkFreq  0x0000acd1    0x1e  Code  Lc  fsl_clock.o [1]
CLOCK_GetInternalRefClkFreq
                        0x0000ae31    0x14  Code  Gb  fsl_clock.o [1]
CLOCK_GetInternalRefClkSelectFreq
                        0x0000acad    0x24  Code  Lc  fsl_clock.o [1]
CLOCK_GetMcgExtClkFreq  0x0000abe1    0x5e  Code  Lc  fsl_clock.o [1]
CLOCK_GetOsc0ErClkFreq  0x0000ad13    0x20  Code  Gb  fsl_clock.o [1]
CLOCK_GetOscRangeFromFreq
                        0x0000acef    0x24  Code  Lc  fsl_clock.o [1]
CLOCK_GetOutClkFreq     0x0000ad9d    0x3a  Code  Gb  fsl_clock.o [1]
CLOCK_InitOsc0          0x0000af59    0x32  Code  Gb  fsl_clock.o [1]
CLOCK_SetEr32kClock     0x0000abc9    0x18  Code  Lc  fsl_clock.o [1]
CLOCK_SetExternalRefClkConfig
                        0x0000ae51    0x4e  Code  Gb  fsl_clock.o [1]
CLOCK_SetFeeMode        0x0000afad    0xba  Code  Gb  fsl_clock.o [1]
CLOCK_SetInternalRefClkConfig
                        0x0000aea5    0xb0  Code  Gb  fsl_clock.o [1]
CLOCK_SetLpuartClock    0x0000ea2d    0x18  Code  Lc  clock_config.o [1]
CLOCK_SetSimConfig      0x0000ad7d    0x12  Code  Gb  fsl_clock.o [1]
CLOCK_SetSimSafeDivs    0x0000ea5d     0xa  Code  Lc  clock_config.o [1]
CLOCK_SetTpmClock       0x0000ea45    0x18  Code  Lc  clock_config.o [1]
CLOCK_SetXtal0Freq      0x0000ea67     0x6  Code  Lc  clock_config.o [1]
CLOCK_SetXtal32Freq     0x0000ea6d     0x6  Code  Lc  clock_config.o [1]
CSTACK$$Base            0x20017c00           --   Gb  - Linker created -
CSTACK$$Limit           0x20018000           --   Gb  - Linker created -
ControllerTask          0x00014645     0xc  Code  Lc  ble_controller_task.o [1]
Controller_Init         0x000146fd    0x3e  Code  Gb  bt_le_bluetooth.o [5]
Controller_InterruptHandler
                        0x0002731d    0x26  Code  Gb  ll_isr.o [5]
Controller_MeshFilterPackets
                        0x00014791    0x42  Code  Gb  bt_le_bluetooth.o [5]
Controller_MeshFilterQueueInit
                        0x0001476d    0x1c  Code  Lc  bt_le_bluetooth.o [5]
Controller_SendSingleAdvertisement
                        0x00014743     0xe  Code  Gb  bt_le_bluetooth.o [5]
Controller_SetTxPowerLevel
                        0x00014751    0x18  Code  Gb  bt_le_bluetooth.o [5]
Controller_TaskHandler  0x00019665    0x64  Code  Gb  llf_task.o [5]
Controller_TaskInit     0x00014651    0x84  Code  Gb  ble_controller_task.o [1]
Cu8_hci_le_supported_commands_array
                        0x0002157c    0x20  Data  Gb  lec_hci_le_common_commands.o [5]
DCDC_AdjustVbatDiv4     0x0000c975    0x1c  Code  Lc  board.o [1]
DCOC_DAC_INIT_Cal       0x0001905d   0x5e8  Code  Gb  fsl_xcvr_trim.o [1]
DbgConsole_ConvertRadixNumToString
                        0x0000e6f5    0xc8  Code  Lc  fsl_debug_console.o [1]
DbgConsole_Printf       0x0000e675    0x30  Code  Gb  fsl_debug_console.o [1]
DbgConsole_PrintfFormattedData
                        0x0000e7bd   0x24a  Code  Lc  fsl_debug_console.o [1]
DbgConsole_PrintfPaddingCharacter
                        0x0000e6d1    0x24  Code  Lc  fsl_debug_console.o [1]
DbgConsole_Putchar      0x0000e6a5    0x22  Code  Gb  fsl_debug_console.o [1]
DevDb_AddConnection     0x00009949    0x90  Code  Gb  device_db.o [4]
DevDb_CheckIfBondedDeviceAddressIsStatic
                        0x00009dd9    0x44  Code  Gb  device_db.o [4]
DevDb_CheckIfBondedDeviceHasDistributedIrk
                        0x00009e21    0x34  Code  Gb  device_db.o [4]
DevDb_CheckIfBondedDeviceIsActive
                        0x00009f43    0x48  Code  Gb  device_db.o [4]
DevDb_GetBondedDeviceAddress
                        0x00009e55    0x24  Code  Gb  device_db.o [4]
DevDb_GetBondedDeviceCsrk
                        0x00009eb5    0x52  Code  Gb  device_db.o [4]
DevDb_GetBondedDeviceIrk
                        0x00009e81    0x2c  Code  Gb  device_db.o [4]
DevDb_GetBondedDeviceSignCounter
                        0x00009f0d    0x36  Code  Gb  device_db.o [4]
DevDb_GetCccd           0x00009add    0x3e  Code  Gb  device_db.o [4]
DevDb_GetDeviceId       0x00009a01    0x20  Code  Gb  device_db.o [4]
DevDb_GetNbBondedDevices
                        0x00009a79     0x6  Code  Gb  device_db.o [4]
DevDb_Init              0x000098d5    0x74  Code  Gb  device_db.o [4]
DevDb_LoadBondingInformation
                        0x00009b29    0x82  Code  Gb  device_db.o [4]
DevDb_LoadMostRecentlyUsedDeviceAddressAndType
                        0x00009fdd    0x38  Code  Gb  device_db.o [4]
DevDb_LoadPublicDeviceAddress
                        0x00009fc1    0x14  Code  Gb  device_db.o [4]
DevDb_MarkDeviceAsBonded
                        0x00009a21    0x58  Code  Gb  device_db.o [4]
DevDb_ReleaseConnection
                        0x000099d9    0x28  Code  Gb  device_db.o [4]
DevDb_SaveCccd          0x00009a7f    0x5e  Code  Gb  device_db.o [4]
DevDb_SaveKeys          0x00009cdd    0xf4  Code  Gb  device_db.o [4]
DevDb_SaveLocalPublicAddress
                        0x00009f91    0x14  Code  Gb  device_db.o [4]
DevDb_SaveMostRecentlyUsedAddressType
                        0x00009fa5     0x8  Code  Gb  device_db.o [4]
DevDb_SaveMostRecentlyUsedRandomAddress
                        0x00009fad    0x14  Code  Gb  device_db.o [4]
DevDb_SetOwnSignCounter
                        0x0000a015    0x3c  Code  Gb  device_db.o [4]
DevDb_SetPeerSignCounter
                        0x0000a055    0x3c  Code  Gb  device_db.o [4]
DevDb_SignalDevicePaired
                        0x00009bb9    0x6c  Code  Gb  device_db.o [4]
DevDb_SignalDevicePairedAndBonded
                        0x00009c2d    0xa6  Code  Gb  device_db.o [4]
DisableGlobalIRQ        0x0000c58d     0x8  Code  Lc  fsl_common.o [1]
ECDH_P256_ComputeDhKey  0x000051f5    0x4c  Code  Gb  SecLib.o [1]
ECDH_P256_GenerateKeys  0x000051b3    0x42  Code  Gb  SecLib.o [1]
EcP256_FieldInv         0x0000b797   0x138  Code  Gb  ec_p_256.o [6]
EcP256_FieldModP        0x0000b595   0x202  Code  Gb  ec_p_256.o [6]
EcP256_FieldMult        0x0000b4d1    0xc4  Code  Gb  ec_p_256.o [6]
EcP256_PointMult        0x0000b8d9    0xea  Code  Gb  ec_p_256.o [6]
Ecdh_ComputeDhKey       0x00008e1d    0x46  Code  Gb  ecdh.o [6]
Ecdh_GenerateNewKeys    0x00008d8d    0x80  Code  Gb  ecdh.o [6]
EnableGlobalIRQ         0x0000c595     0x6  Code  Lc  fsl_common.o [1]
EnableHostPrivacyTimer  0x00011f5f    0x4a  Code  Lc  gap.o [4]
EnableIRQ               0x0000526f    0x18  Code  Lc  RNG.o [1]
FLib_MemCmp             0x00004c11    0x24  Code  Gb  FunctionLib.o [1]
FLib_MemCpy             0x00004be1    0x14  Code  Gb  FunctionLib.o [1]
FLib_MemCpyReverseOrder
                        0x00004bf5    0x1c  Code  Gb  FunctionLib.o [1]
FLib_MemSet             0x00004c35     0xe  Code  Gb  FunctionLib.o [1]
FREESCALE_PROD_DATA_BASE_ADDR {Abs}
                        0x0007f800          Data  Gb  command line/config [2]
FWK_VERSION             0x00027590     0xc  Data  Gb  ModuleInfo.o [1]
GPIO_ClearPinsOutput    0x0000ee1b     0x4  Code  Lc  GPIO_Adapter.o [1]
GPIO_PinInit            0x00012979    0x42  Code  Gb  fsl_gpio.o [1]
GPIO_ReadPinInput       0x0000ee23     0xc  Code  Lc  GPIO_Adapter.o [1]
GPIO_SetPinsOutput      0x0000ee17     0x4  Code  Lc  GPIO_Adapter.o [1]
GPIO_TogglePinsOutput   0x0000ee1f     0x4  Code  Lc  GPIO_Adapter.o [1]
GPIO_WritePinOutput     0x00012961    0x18  Code  Lc  fsl_gpio.o [1]
Gap_CheckNotificationStatus
                        0x0001086b     0x8  Code  Gb  gap_api2msg.o [4]
Gap_Connect             0x00010959    0x48  Code  Gb  gap_api2msg.o [4]
Gap_Disconnect          0x000109a1    0x34  Code  Gb  gap_api2msg.o [4]
Gap_EnableUpdateConnectionParameters
                        0x00010a0d    0x50  Code  Gb  gap_api2msg.o [4]
Gap_ReadPublicDeviceAddress
                        0x000109d5    0x2e  Code  Gb  gap_api2msg.o [4]
Gap_RejectPairing       0x00010881    0x54  Code  Gb  gap_api2msg.o [4]
Gap_SetAdvertisingData  0x000106a5   0x18e  Code  Gb  gap_api2msg.o [4]
Gap_SetAdvertisingParameters
                        0x00010661    0x44  Code  Gb  gap_api2msg.o [4]
Gap_StartAdvertising    0x00010833    0x38  Code  Gb  gap_api2msg.o [4]
Gap_StartScanning       0x000108dd    0x4e  Code  Gb  gap_api2msg.o [4]
Gap_StopScanning        0x0001092b    0x2e  Code  Gb  gap_api2msg.o [4]
GattClient_DiscoverAllCharacteristicDescriptors
                        0x00010bb9    0x5a  Code  Gb  gatt_api2msg.o [4]
GattClient_DiscoverAllCharacteristicsOfService
                        0x00010b6b    0x4e  Code  Gb  gatt_api2msg.o [4]
GattClient_DiscoverPrimaryServicesByUuid
                        0x00010aff    0x6c  Code  Gb  gatt_api2msg.o [4]
GattClient_ExchangeMtu  0x00010acb    0x34  Code  Gb  gatt_api2msg.o [4]
GattClient_RegisterProcedureCallback
                        0x00010ac1     0xa  Code  Gb  gatt_api2msg.o [4]
GattClient_WriteCharacteristicValue
                        0x00010c1d    0x92  Code  Gb  gatt_api2msg.o [4]
GattDb_AttExecuteWrite  0x00017c21    0x30  Code  Gb  gatt_db_att.o [4]
GattDb_AttExecuteWriteFromQueue
                        0x00017c51    0x8c  Code  Gb  gatt_db_att.o [4]
GattDb_AttFindByTypeValue
                        0x0001742d    0xf0  Code  Gb  gatt_db_att.o [4]
GattDb_AttFindInformation
                        0x00017309   0x124  Code  Gb  gatt_db_att.o [4]
GattDb_AttPrepareNotificationIndication
                        0x00017cdd    0x7e  Code  Gb  gatt_db_att.o [4]
GattDb_AttPrepareWrite  0x00017ba1    0x80  Code  Gb  gatt_db_att.o [4]
GattDb_AttRead          0x000176b5    0x7c  Code  Gb  gatt_db_att.o [4]
GattDb_AttReadBlob      0x00017739    0x9e  Code  Gb  gatt_db_att.o [4]
GattDb_AttReadByGroupType
                        0x000178ad   0x1d4  Code  Gb  gatt_db_att.o [4]
GattDb_AttReadByType    0x00017525   0x190  Code  Gb  gatt_db_att.o [4]
GattDb_AttReadMultiple  0x000177dd    0xcc  Code  Gb  gatt_db_att.o [4]
GattDb_AttSignedWriteCommand
                        0x00017b57    0x42  Code  Gb  gatt_db_att.o [4]
GattDb_AttWrite         0x00017a85    0x74  Code  Gb  gatt_db_att.o [4]
GattDb_AttWriteCommand  0x00017af9    0x5e  Code  Gb  gatt_db_att.o [4]
GattDb_FindCccdHandleForCharValueHandle
                        0x00018515    0x56  Code  Gb  gatt_db_app.o [4]
GattDb_FindCharValueHandleInService
                        0x00018423    0xe2  Code  Gb  gatt_db_app.o [4]
GattDb_GetIndexOfHandle
                        0x00016eb5    0x58  Code  Gb  gatt_database.o [1]
GattDb_GetServiceHandleForAttributeIndex
                        0x0001801d    0x38  Code  Gb  gatt_db_att.o [4]
GattDb_Init             0x00016e65    0x50  Code  Gb  gatt_database.o [1]
GattDb_Init::mAlreadyInit
                        0x20009800     0x1  Data  Lc  gatt_database.o [1]
GattDb_WriteAttribute   0x000183b9    0x6a  Code  Gb  gatt_db_app.o [4]
GattServer_RegisterCallback
                        0x00010caf     0xa  Code  Gb  gatt_api2msg.o [4]
GattServer_RegisterHandlesForWriteNotifications
                        0x00010cb9    0x24  Code  Gb  gatt_api2msg.o [4]
GattServer_SendNotification
                        0x00010ce1    0x38  Code  Gb  gatt_api2msg.o [4]
Gatt_GetMtu             0x00010ab1    0x10  Code  Gb  gatt_api2msg.o [4]
Gatt_Init               0x00010aa9     0x8  Code  Gb  gatt_api2msg.o [4]
GpioClearPinIntFlag     0x0000eec7    0x1a  Code  Gb  GPIO_Adapter.o [1]
GpioClearPinOutput      0x0000ef27    0x1a  Code  Gb  GPIO_Adapter.o [1]
GpioInputPinInit        0x0000ef89    0xb6  Code  Gb  GPIO_Adapter.o [1]
GpioInstallIsr          0x0000f0f9   0x1ba  Code  Gb  GPIO_Adapter.o [1]
GpioIsPinIntPending     0x0000eee5    0x20  Code  Gb  GPIO_Adapter.o [1]
GpioOutputPinInit       0x0000f045    0xae  Code  Gb  GPIO_Adapter.o [1]
GpioReadPinInput        0x0000ef61    0x16  Code  Gb  GPIO_Adapter.o [1]
GpioSetPinMux           0x0000eea7    0x20  Code  Gb  GPIO_Adapter.o [1]
GpioSetPinOutput        0x0000ef0d    0x1a  Code  Gb  GPIO_Adapter.o [1]
GpioTogglePinOutput     0x0000ef41    0x1a  Code  Gb  GPIO_Adapter.o [1]
Gpio_CommonIsr          0x0000f2d1    0x60  Code  Lc  GPIO_Adapter.o [1]
Gpio_InstallPortISR     0x0000f339    0x38  Code  Lc  GPIO_Adapter.o [1]
Hci2Host_MsgHandler     0x0001a541    0xa2  Code  Gb  host_hl_task.o [4]
Hci_Disconnect          0x00006f4f    0x24  Code  Gb  hci_commands.o [4]
Hci_EventHandler        0x00007591    0xa8  Code  Lc  hci_commands.o [4]
Hci_Init                0x00006cd9    0x2e  Code  Gb  hci_commands.o [4]
Hci_LeAddDeviceToResolvingList
                        0x00007481    0x4c  Code  Gb  hci_commands.o [4]
Hci_LeAddDeviceToWhiteList
                        0x000070d9    0x26  Code  Gb  hci_commands.o [4]
Hci_LeClearResolvingList
                        0x000074d9    0x10  Code  Gb  hci_commands.o [4]
Hci_LeClearWhiteList    0x00007109    0x10  Code  Gb  hci_commands.o [4]
Hci_LeConnectionUpdate  0x0000701d     0xa  Code  Gb  hci_commands.o [4]
Hci_LeCreateConnection  0x00006f79    0x90  Code  Gb  hci_commands.o [4]
Hci_LeCreateConnectionCancel
                        0x00007009    0x10  Code  Gb  hci_commands.o [4]
Hci_LeLongTermKeyRequestNegativeReply
                        0x00007381    0x20  Code  Gb  hci_commands.o [4]
Hci_LeLongTermKeyRequestReply
                        0x00007343    0x3e  Code  Gb  hci_commands.o [4]
Hci_LeReadAdvertisingChannelTxPower
                        0x000071e9    0x10  Code  Gb  hci_commands.o [4]
Hci_LeReadBufferSize    0x00006db5    0x12  Code  Gb  hci_commands.o [4]
Hci_LeReadLocalSupportedFeatures
                        0x00006de5    0x12  Code  Gb  hci_commands.o [4]
Hci_LeReadPeerResolvableAddress
                        0x000074ed     0xa  Code  Gb  hci_commands.o [4]
Hci_LeReadSuggestedDefaultDataLength
                        0x0000743d    0x10  Code  Gb  hci_commands.o [4]
Hci_LeReadWhiteListSize
                        0x0000711d    0x10  Code  Gb  hci_commands.o [4]
Hci_LeRemoteConnectionParameterRequestNegativeReply
                        0x00007095    0x24  Code  Gb  hci_commands.o [4]
Hci_LeRemoteConnectionParameterRequestReply
                        0x0000702d     0x8  Code  Gb  hci_commands.o [4]
Hci_LeRemoveDeviceFromWhiteList
                        0x00007131    0x26  Code  Gb  hci_commands.o [4]
Hci_LeSetAddressResolutionEnable
                        0x00007525     0x6  Code  Gb  hci_commands.o [4]
Hci_LeSetAdvertiseDisable
                        0x00006e17    0x1c  Code  Gb  hci_commands.o [4]
Hci_LeSetAdvertiseEnable
                        0x00006dfd    0x1a  Code  Gb  hci_commands.o [4]
Hci_LeSetAdvertisingData
                        0x00006e33     0xc  Code  Gb  hci_commands.o [4]
Hci_LeSetAdvertisingParameters
                        0x00006e3f    0x5c  Code  Gb  hci_commands.o [4]
Hci_LeSetDataLength     0x00007401    0x32  Code  Gb  hci_commands.o [4]
Hci_LeSetEventMask      0x00007161     0xa  Code  Gb  hci_commands.o [4]
Hci_LeSetRandomAddress  0x00006e9b    0x1e  Code  Gb  hci_commands.o [4]
Hci_LeSetResolvablePrivateAddressTimeout
                        0x00007547    0x20  Code  Gb  hci_commands.o [4]
Hci_LeSetScanEnable     0x00006efd    0x1e  Code  Gb  hci_commands.o [4]
Hci_LeSetScanParameters
                        0x00006f1b    0x34  Code  Gb  hci_commands.o [4]
Hci_LeSetScanResponseData
                        0x00006eb9     0xa  Code  Gb  hci_commands.o [4]
Hci_LeStartEncryption   0x000073ad    0x4a  Code  Gb  hci_commands.o [4]
Hci_LeWriteSuggestedDefaultDataLength
                        0x00007451    0x2a  Code  Gb  hci_commands.o [4]
Hci_ReadBdAddr          0x00006dcd    0x12  Code  Gb  hci_commands.o [4]
Hci_ReadRssi            0x000071c3    0x20  Code  Gb  hci_commands.o [4]
Hci_ReadTransmitPowerLevel
                        0x0000719f    0x24  Code  Gb  hci_commands.o [4]
Hci_RecvAclDataHandler  0x00007571    0x12  Code  Lc  hci_commands.o [4]
Hci_RecvFragmentOfPacket
                        0x00007db5    0xa8  Code  Lc  hci_commands.o [4]
Hci_RecvFragmentOfPacket::pLargePacket
                        0x200096b8     0x4  Data  Lc  hci_commands.o [4]
Hci_RecvFragmentOfPacket::packetConnectionHandle
                        0x200096b4     0x2  Data  Lc  hci_commands.o [4]
Hci_RecvFragmentOfPacket::packetIndex
                        0x200096b2     0x2  Data  Lc  hci_commands.o [4]
Hci_RecvFragmentOfPacket::packetTotalLength
                        0x200096b0     0x2  Data  Lc  hci_commands.o [4]
Hci_RegisterCommandCompleteEventCallback
                        0x00006d1d    0x16  Code  Gb  hci_commands.o [4]
Hci_RegisterCommandStatusEventCallback
                        0x00006d33    0x16  Code  Gb  hci_commands.o [4]
Hci_RegisterGenericEventCallback
                        0x00006d49    0x16  Code  Gb  hci_commands.o [4]
Hci_RegisterL2caCallback
                        0x00006d5f    0x26  Code  Gb  hci_commands.o [4]
Hci_RegisterLeEventCallback
                        0x00006d07    0x16  Code  Gb  hci_commands.o [4]
Hci_RegisterSmCallback  0x00006d85    0x16  Code  Gb  hci_commands.o [4]
Hci_Reset               0x00006d9d    0x12  Code  Gb  hci_commands.o [4]
Hci_SendAclData         0x000071fd    0x5c  Code  Gb  hci_commands.o [4]
Hci_SendAclDataWithSegmentation
                        0x00007261    0xe2  Code  Gb  hci_commands.o [4]
Hci_SendPacketToController
                        0x0001473b     0x8  Code  Gb  bt_le_bluetooth.o [5]
Hci_SetEventMask        0x000070cd     0xc  Code  Gb  hci_commands.o [4]
Host_MsgHandler         0x0001a5e5   0x470  Code  Gb  host_hl_task.o [4]
Host_Task               0x00014849     0xc  Code  Lc  ble_host_tasks.o [1]
Host_TaskHandler        0x0001a4dd    0x54  Code  Gb  host_hl_task.o [4]
InStream_Read           0x00025f9d    0x24  Code  Lc  lz77_init.o [8]
InStream_StepRegion     0x00025f89    0x14  Code  Lc  lz77_init.o [8]
InstallIRQHandler       0x0000c5b5    0x60  Code  Gb  fsl_common.o [1]
InternalBle_Initialize  0x00010d25    0x58  Code  Gb  gap.o [4]
InternalGap_AcceptPairingRequest
                        0x000110ab    0x14  Code  Gb  gap.o [4]
InternalGap_AddDeviceToWhiteList
                        0x00011525    0x30  Code  Gb  gap.o [4]
InternalGap_AutoConnectWithPra
                        0x00011d7d    0x78  Code  Gb  gap.o [4]
InternalGap_CheckIndicationStatus
                        0x00010fa5    0x14  Code  Gb  gap.o [4]
InternalGap_CheckNotificationStatus
                        0x00010f99     0xc  Code  Gb  gap.o [4]
InternalGap_ClearWhiteList
                        0x00011503    0x22  Code  Gb  gap.o [4]
InternalGap_Connect     0x000113e9    0x88  Code  Gb  gap.o [4]
InternalGap_CreateRandomAddress
                        0x00011585    0x40  Code  Gb  gap.o [4]
InternalGap_DefaultPair
                        0x00010fd3    0x16  Code  Gb  gap.o [4]
InternalGap_DenyLongTermKey
                        0x000112c5    0x28  Code  Gb  gap.o [4]
InternalGap_Disconnect  0x00011471    0x5c  Code  Gb  gap.o [4]
InternalGap_EnableControllerPrivacy
                        0x000116b5    0x6a  Code  Gb  gap.o [4]
InternalGap_EncryptLink
                        0x00011043    0x68  Code  Gb  gap.o [4]
InternalGap_EnterPasskey
                        0x000110e9    0x42  Code  Gb  gap.o [4]
InternalGap_HandleSmCheckResult
                        0x00023975    0x16  Code  Gb  gap_sm_cb.o [4]
InternalGap_LeScGetLocalOobData
                        0x0001178f    0x2a  Code  Gb  gap.o [4]
InternalGap_LeScRegeneratePublicKey
                        0x0001171f    0x2a  Code  Gb  gap.o [4]
InternalGap_LeScSendKeypressNotification
                        0x0001182d    0x46  Code  Gb  gap.o [4]
InternalGap_LeScSetPeerOobData
                        0x000117b9    0x74  Code  Gb  gap.o [4]
InternalGap_LeScValidateNumericValue
                        0x00011749    0x46  Code  Gb  gap.o [4]
InternalGap_LoadEncryptionInformation
                        0x000112ed    0x94  Code  Gb  gap.o [4]
InternalGap_Pair        0x00010fbd    0x16  Code  Gb  gap.o [4]
InternalGap_PostSmCheckResult
                        0x00010a6d    0x30  Code  Gb  gap_api2msg.o [4]
InternalGap_ProvideLongTermKey
                        0x00011279    0x46  Code  Gb  gap.o [4]
InternalGap_ProvideOob  0x0001112b    0x3a  Code  Gb  gap.o [4]
InternalGap_ReadPublicAddress
                        0x000115c5    0x12  Code  Gb  gap.o [4]
InternalGap_ReadRadioPowerLevel
                        0x000115d7    0x5a  Code  Gb  gap.o [4]
InternalGap_ReadWhiteListSize
                        0x000114e1    0x22  Code  Gb  gap.o [4]
InternalGap_RejectKeyExchangeRequest
                        0x0001126f     0xa  Code  Gb  gap.o [4]
InternalGap_RejectPairingRequest
                        0x000110df     0xa  Code  Gb  gap.o [4]
InternalGap_RejectPasskeyRequest
                        0x00011165     0xa  Code  Gb  gap.o [4]
InternalGap_RemoveDeviceFromWhiteList
                        0x00011555    0x30  Code  Gb  gap.o [4]
InternalGap_SendSingleAdvertisement
                        0x00010e53    0x5c  Code  Gb  gap.o [4]
InternalGap_SendSingleAdvertisement{1}{2}::setAdvParamBytes
                        0x2000962c    0x10  Data  Lc  gap.o [4]
InternalGap_SendSlaveSecurityRequest
                        0x00010ff1    0x52  Code  Gb  gap.o [4]
InternalGap_SendSmpKeys
                        0x0001116f   0x100  Code  Gb  gap.o [4]
InternalGap_SetAdvertisingData
                        0x00010eaf    0x5a  Code  Gb  gap.o [4]
InternalGap_SetAdvertisingParameters
                        0x00010d7d    0xd6  Code  Gb  gap.o [4]
InternalGap_SetRandomAddress
                        0x00011639    0x38  Code  Gb  gap.o [4]
InternalGap_StartAdvertising
                        0x00010f11    0x3c  Code  Gb  gap.o [4]
InternalGap_StartScanning
                        0x00011381    0x42  Code  Gb  gap.o [4]
InternalGap_StopAdvertising
                        0x00010f61    0x38  Code  Gb  gap.o [4]
InternalGap_StopScanning
                        0x000113c3    0x26  Code  Gb  gap.o [4]
InternalGap_UpdateLeDataLength
                        0x00011671    0x44  Code  Gb  gap.o [4]
InternalGap_VerifyPrivateResolvableAddress
                        0x00011631     0x8  Code  Gb  gap.o [4]
InternalGattClient_DiscoverAllCharacteristicDescriptors
                        0x00014ce1    0x7e  Code  Gb  gatt_client.o [4]
InternalGattClient_DiscoverAllCharacteristicsOfService
                        0x00014ba9    0x7e  Code  Gb  gatt_client.o [4]
InternalGattClient_DiscoverAllPrimaryServices
                        0x00014955    0x76  Code  Gb  gatt_client.o [4]
InternalGattClient_DiscoverCharacteristicOfServiceByUuid
                        0x00014c35    0xac  Code  Gb  gatt_client.o [4]
InternalGattClient_DiscoverPrimaryServicesByUuid
                        0x000149cb   0x11c  Code  Gb  gatt_client.o [4]
InternalGattClient_ExchangeMtu
                        0x00014905    0x50  Code  Gb  gatt_client.o [4]
InternalGattClient_FindIncludedServices
                        0x00014b1d    0x7e  Code  Gb  gatt_client.o [4]
InternalGattClient_Init
                        0x00014875    0x80  Code  Gb  gatt_client.o [4]
InternalGattClient_ReadCharacteristicDescriptor
                        0x00014f91     0xa  Code  Gb  gatt_client.o [4]
InternalGattClient_ReadCharacteristicValue
                        0x00014de1     0xc  Code  Gb  gatt_client.o [4]
InternalGattClient_ReadMultipleCharacteristicValues
                        0x00014e95    0xee  Code  Gb  gatt_client.o [4]
InternalGattClient_ReadUsingCharacteristicUuid
                        0x00014ded    0x98  Code  Gb  gatt_client.o [4]
InternalGattClient_RegisterProcedureCallback
                        0x000148ff     0x6  Code  Gb  gatt_client.o [4]
InternalGattClient_ResetProcedures
                        0x000148f5     0xa  Code  Gb  gatt_client.o [4]
InternalGattClient_WriteCharacteristicDescriptor
                        0x00015229    0x10  Code  Gb  gatt_client.o [4]
InternalGattClient_WriteCharacteristicValue
                        0x00015211    0x18  Code  Gb  gatt_client.o [4]
InternalGattServer_Init
                        0x00016455    0x80  Code  Gb  gatt_server.o [4]
InternalGattServer_RegisterCallback
                        0x000164d5     0x6  Code  Gb  gatt_server.o [4]
InternalGattServer_RegisterHandlesForWriteNotifications
                        0x000164db     0xc  Code  Gb  gatt_server.o [4]
InternalGattServer_SendAttributeReadStatus
                        0x00016535     0x8  Code  Gb  gatt_server.o [4]
InternalGattServer_SendAttributeWrittenStatus
                        0x000164e7    0x3e  Code  Gb  gatt_server.o [4]
InternalGattServer_SendIndication
                        0x00016547    0x30  Code  Gb  gatt_server.o [4]
InternalGattServer_SendInstantIndication
                        0x00016585    0x32  Code  Gb  gatt_server.o [4]
InternalGattServer_SendInstantNotification
                        0x00016577     0xe  Code  Gb  gatt_server.o [4]
InternalGattServer_SendNotification
                        0x0001653d     0xa  Code  Gb  gatt_server.o [4]
InternalGatt_GetMtu     0x0001486b     0x8  Code  Gb  gatt.o [4]
InternalGatt_Init       0x00014855    0x16  Code  Gb  gatt.o [4]
IsNonZeroAddress        0x0000a0fd    0x18  Code  Gb  device_db.o [4]
KBD_Init                0x0000fb39    0x84  Code  Gb  Keyboard.o [1]
KBD_KeyCheck            0x0000f9b5    0x68  Code  Lc  Keyboard.o [1]
KBD_KeySwitchPortGet    0x0000f961    0x54  Code  Lc  Keyboard.o [1]
KbGpioInit              0x0000f92d    0x34  Code  Lc  Keyboard.o [1]
KeyScan                 0x0000fa1d    0xec  Code  Lc  Keyboard.o [1]
L2caRm_CancelConnection
                        0x0000a471    0x4e  Code  Gb  l2ca_resource_manager.o [4]
L2caRm_ConnectLePsm     0x0000a337   0x112  Code  Gb  l2ca_resource_manager.o [4]
L2caRm_DisconnectChannel
                        0x0000a6c1    0x4e  Code  Gb  l2ca_resource_manager.o [4]
L2caRm_DisconnectLePsm  0x0000a449    0x28  Code  Gb  l2ca_resource_manager.o [4]
L2caRm_GetCbChannelByCids
                        0x0000a729    0x2c  Code  Gb  l2ca_resource_manager.o [4]
L2caRm_GetCbChannelByDstCid
                        0x0000a781    0x2c  Code  Gb  l2ca_resource_manager.o [4]
L2caRm_GetCbChannelBySrcCid
                        0x0000a755    0x26  Code  Gb  l2ca_resource_manager.o [4]
L2caRm_GetLePsmIndex    0x0000a70f    0x10  Code  Gb  l2ca_resource_manager.o [4]
L2caRm_GetPendingCbChannel
                        0x0000a7ad    0x34  Code  Gb  l2ca_resource_manager.o [4]
L2caRm_HandleRecvData   0x0000a579    0x52  Code  Gb  l2ca_resource_manager.o [4]
L2caRm_HandleRecvLeCbData
                        0x0000a5d5    0xe0  Code  Gb  l2ca_resource_manager.o [4]
L2caRm_HandleSendData   0x0000a4bf    0x54  Code  Gb  l2ca_resource_manager.o [4]
L2caRm_HandleSendLeCbData
                        0x0000a519    0x5a  Code  Gb  l2ca_resource_manager.o [4]
L2caRm_LinkConnectionTimerCallback
                        0x0000a9bd    0x32  Code  Lc  l2ca_resource_manager.o [4]
L2caRm_ReserveNextAvailableChannel
                        0x0000a8b9    0x78  Code  Gb  l2ca_resource_manager.o [4]
L2caRm_ResumeChannelsOnConn
                        0x0000a931    0x26  Code  Gb  l2ca_resource_manager.o [4]
L2caRm_SendLeCbData     0x0000a7e9    0xd0  Code  Gb  l2ca_resource_manager.o [4]
L2caRm_SuspendChannelsOnConn
                        0x0000a957    0x26  Code  Gb  l2ca_resource_manager.o [4]
L2ca_Config             0x0000a2fd    0x12  Code  Gb  l2ca_resource_manager.o [4]
L2ca_ConnectionParameterUpdateRequest
                        0x0000d335    0xcc  Code  Gb  l2ca_signaling.o [4]
L2ca_ConnectionParameterUpdateResponse
                        0x0000d401    0xd6  Code  Gb  l2ca_signaling.o [4]
L2ca_HandleCommandReject
                        0x0000d7cd    0x48  Code  Gb  l2ca_signaling.o [4]
L2ca_HandleConnectionParameterUpdateRequest
                        0x0000d8b9    0xaa  Code  Gb  l2ca_signaling.o [4]
L2ca_HandleConnectionParameterUpdateResponse
                        0x0000d969    0x5a  Code  Gb  l2ca_signaling.o [4]
L2ca_HandleDisconnectRequest
                        0x0000d815    0x4c  Code  Gb  l2ca_signaling.o [4]
L2ca_HandleDisconnectResponse
                        0x0000d861    0x50  Code  Gb  l2ca_signaling.o [4]
L2ca_HandleLeCbConnectionRequest
                        0x0000d9c3    0xb8  Code  Gb  l2ca_signaling.o [4]
L2ca_HandleLeCbConnectionResponse
                        0x0000da7b    0xa4  Code  Gb  l2ca_signaling.o [4]
L2ca_HandleLeConnectionUpdateComplete
                        0x0000dbbd    0x6c  Code  Gb  l2ca_signaling.o [4]
L2ca_HandleLeFlowControlCredit
                        0x0000db25    0x90  Code  Gb  l2ca_signaling.o [4]
L2ca_HandleLeRemoteConnectionParameterRequest
                        0x0000dc31    0xb6  Code  Gb  l2ca_signaling.o [4]
L2ca_HandleRecvSignaling
                        0x0000d625   0x1a8  Code  Gb  l2ca_signaling.o [4]
L2ca_HciEventCallback   0x0000a25d    0x54  Code  Gb  l2ca_main.o [4]
L2ca_Init               0x0000a151    0x2a  Code  Gb  l2ca_main.o [4]
L2ca_InitRm             0x0000a2c5    0x38  Code  Gb  l2ca_resource_manager.o [4]
L2ca_InitSignaling      0x0000d205     0x4  Code  Gb  l2ca_signaling.o [4]
L2ca_NotifyConnection   0x0000a97d    0x16  Code  Gb  l2ca_resource_manager.o [4]
L2ca_NotifyDisconnection
                        0x0000a999    0x24  Code  Gb  l2ca_resource_manager.o [4]
L2ca_RecvDataCallback   0x0000a1cf    0x7e  Code  Gb  l2ca_main.o [4]
L2ca_RegisterAttCallback
                        0x0000a30f    0x14  Code  Gb  l2ca_resource_manager.o [4]
L2ca_RegisterSmpCallback
                        0x0000a323    0x14  Code  Gb  l2ca_resource_manager.o [4]
L2ca_SendAttData        0x0000a17b    0x2a  Code  Gb  l2ca_main.o [4]
L2ca_SendCommandReject  0x0000d209    0x8c  Code  Gb  l2ca_signaling.o [4]
L2ca_SendDisconnectRequest
                        0x0000d295    0x50  Code  Gb  l2ca_signaling.o [4]
L2ca_SendDisconnectResponse
                        0x0000d2e5    0x3a  Code  Gb  l2ca_signaling.o [4]
L2ca_SendLeCbConnectionRequest
                        0x0000d4d7    0x66  Code  Gb  l2ca_signaling.o [4]
L2ca_SendLeCbConnectionResponse
                        0x0000d549    0x50  Code  Gb  l2ca_signaling.o [4]
L2ca_SendLeFlowControlCredit
                        0x0000d5af    0x70  Code  Gb  l2ca_signaling.o [4]
L2ca_SendSmpData        0x0000a1a5    0x2a  Code  Gb  l2ca_main.o [4]
LED_DecrementBlip       0x0000f86d    0x52  Code  Lc  LED.o [1]
LED_FlashTimeout        0x0000f8c9    0x46  Code  Lc  LED.o [1]
LED_GpioSet             0x0000f83d    0x30  Code  Lc  LED.o [1]
LED_Init                0x0000f665    0x18  Code  Gb  LED.o [1]
LED_Operate             0x0000f67d    0x40  Code  Gb  LED.o [1]
LED_SetLed              0x0000f75d    0x7a  Code  Gb  LED.o [1]
LED_StartBlip           0x0000f703    0x32  Code  Gb  LED.o [1]
LED_StartFlashWithPeriod
                        0x0000f7d7    0x30  Code  Gb  LED.o [1]
LED_StopFlash           0x0000f735    0x28  Code  Gb  LED.o [1]
LED_StopFlashingAllLeds
                        0x0000f6f7     0xc  Code  Gb  LED.o [1]
LED_StopSerialFlash     0x0000f807    0x2a  Code  Gb  LED.o [1]
LED_ToggleLed           0x0000f6dd    0x10  Code  Gb  LED.o [1]
LED_TurnOffAllLeds      0x0000f6ed     0xa  Code  Gb  LED.o [1]
LED_TurnOffLed          0x0000f6cd    0x10  Code  Gb  LED.o [1]
LED_TurnOnLed           0x0000f6bd    0x10  Code  Gb  LED.o [1]
LPUART_ClearStatusFlags
                        0x0001af35    0x52  Code  Gb  fsl_lpuart.o [1]
LPUART_DisableInterrupts
                        0x0001aee5    0x1e  Code  Gb  fsl_lpuart.o [1]
LPUART_EnableInterrupts
                        0x0001aec7    0x1e  Code  Gb  fsl_lpuart.o [1]
LPUART_GetDefaultConfig
                        0x0001ad79    0x38  Code  Gb  fsl_lpuart.o [1]
LPUART_GetEnabledInterrupts
                        0x0001af03    0x18  Code  Gb  fsl_lpuart.o [1]
LPUART_GetInstance      0x0001ab5b    0x32  Code  Gb  fsl_lpuart.o [1]
LPUART_GetStatusFlags   0x0001af2d     0x8  Code  Gb  fsl_lpuart.o [1]
LPUART_ISR              0x000182c1    0xea  Code  Lc  UART_Adapter.o [1]
LPUART_Init             0x0001ab8d   0x1da  Code  Gb  fsl_lpuart.o [1]
LPUART_Initialize       0x00018113    0x90  Code  Gb  UART_Adapter.o [1]
LPUART_InstallRxCalback
                        0x00018259    0x26  Code  Gb  UART_Adapter.o [1]
LPUART_InstallTxCalback
                        0x0001827f    0x26  Code  Gb  UART_Adapter.o [1]
LPUART_ReadByte         0x0001810d     0x6  Code  Lc  UART_Adapter.o [1]
LPUART_SendData         0x000181cf    0x8a  Code  Gb  UART_Adapter.o [1]
LPUART_SetBaudRate      0x0001adb9   0x10e  Code  Gb  fsl_lpuart.o [1]
LPUART_SetBaudrate      0x000181a3    0x2c  Code  Gb  UART_Adapter.o [1]
LPUART_WriteByte        0x00018107     0x6  Code  Lc  UART_Adapter.o [1]
LTC_AES_DecryptTagCcm   0x0000898b    0x66  Code  Gb  fsl_ltc.o [1]
LTC_AES_EncryptEcb      0x00008547    0x60  Code  Gb  fsl_ltc.o [1]
LTC_AES_EncryptTagCcm   0x00008945    0x46  Code  Gb  fsl_ltc.o [1]
LTC_Init                0x0000853b     0xc  Code  Gb  fsl_ltc.o [1]
ListAddHead             0x0000b12d    0x48  Code  Gb  GenericList.o [1]
ListAddHeadMsg          0x0000a127    0x12  Code  Gb  Messaging.o [1]
ListAddTail             0x0000b0e5    0x48  Code  Gb  GenericList.o [1]
ListAddTailMsg          0x0000a115    0x12  Code  Gb  Messaging.o [1]
ListInit                0x0000b0d3    0x12  Code  Gb  GenericList.o [1]
ListRemoveHead          0x0000b175    0x46  Code  Gb  GenericList.o [1]
ListRemoveHeadMsg       0x0000a139    0x18  Code  Gb  Messaging.o [1]
MEM_BufferAllocWithId   0x00008c9b    0x6a  Code  Gb  MemManager.o [1]
MEM_BufferFree          0x00008d05    0x74  Code  Gb  MemManager.o [1]
MEM_Init                0x00008c35    0x66  Code  Gb  MemManager.o [1]
MWS_Acquire             0x00023a97     0x8  Code  Gb  MWS.o [1]
MWS_CoexistenceDenyState
                        0x00023aa7     0x6  Code  Gb  MWS.o [1]
MWS_Release             0x00023a9f     0x8  Code  Gb  MWS.o [1]
MatchDataInAdvElementList
                        0x00010019    0x36  Code  Lc  wireless_uart.o [1]
NMI_Handler             0x0000c777    0x14  Code  Gb  board.o [1]
NVIC_ClearPendingIRQ    0x000145b3     0xe  Code  Lc  ble_controller_task.o [1]
NVIC_ClearPendingIRQ    0x0000ed3b     0xe  Code  Lc  GPIO_Adapter.o [1]
NVIC_ClearPendingIRQ    0x0000aa13     0xe  Code  Lc  TMR_Adapter.o [1]
NVIC_EnableIRQ          0x000145a5     0xe  Code  Lc  ble_controller_task.o [1]
NVIC_EnableIRQ          0x0000ed2d     0xe  Code  Lc  GPIO_Adapter.o [1]
NVIC_EnableIRQ          0x00005261     0xe  Code  Lc  RNG.o [1]
NVIC_EnableIRQ          0x0000aa05     0xe  Code  Lc  TMR_Adapter.o [1]
NVIC_EnableIRQ          0x00018075     0xe  Code  Lc  UART_Adapter.o [1]
NVIC_GetPriority        0x0000edcd    0x4a  Code  Lc  GPIO_Adapter.o [1]
NVIC_SetPriority        0x000145c1    0x84  Code  Lc  ble_controller_task.o [1]
NVIC_SetPriority        0x0000ed49    0x84  Code  Lc  GPIO_Adapter.o [1]
NVIC_SetPriority        0x0000aa21    0x84  Code  Lc  TMR_Adapter.o [1]
NVIC_SetPriority        0x00018083    0x84  Code  Lc  UART_Adapter.o [1]
NV_ComputeCrcOverHWParameters
                        0x0000ec83    0x54  Code  Lc  Flash_Adapter.o [1]
NV_ReadHWParameters     0x0000ecd7    0x48  Code  Gb  Flash_Adapter.o [1]
NV_STORAGE_END_ADDRESS {Abs}
                        0x0007d800          Data  Gb  command line/config [2]
NV_STORAGE_MAX_SECTORS {Abs}
                        0x00000004          Data  Gb  command line/config [2]
NV_STORAGE_SECTOR_SIZE {Abs}
                        0x00000800          Data  Gb  command line/config [2]
NV_STORAGE_START_ADDRESS {Abs}
                        0x0007f7ff          Data  Gb  command line/config [2]
NV_VerifyCrcOverHWParameters
                        0x0000ec51    0x32  Code  Lc  Flash_Adapter.o [1]
OSA_DisableIRQGlobal    0x000094b9     0xe  Code  Gb  fsl_os_abstraction_bm.o [1]
OSA_EnableIRQGlobal     0x00009499    0x20  Code  Gb  fsl_os_abstraction_bm.o [1]
OSA_EventCreate         0x000095cd    0x38  Code  Gb  fsl_os_abstraction_bm.o [1]
OSA_EventSet            0x00009609    0x36  Code  Gb  fsl_os_abstraction_bm.o [1]
OSA_EventWait           0x0000963f    0x7a  Code  Gb  fsl_os_abstraction_bm.o [1]
OSA_Init                0x0000974f     0xa  Code  Gb  fsl_os_abstraction_bm.o [1]
OSA_InsertTaskBefore    0x000097ad     0xe  Code  Lc  fsl_os_abstraction_bm.o [1]
OSA_InstallIntHandler   0x000096c9    0x12  Code  Gb  fsl_os_abstraction_bm.o [1]
OSA_InterruptDisable    0x000096c1     0x8  Code  Gb  fsl_os_abstraction_bm.o [1]
OSA_InterruptEnable     0x000096b9     0x8  Code  Gb  fsl_os_abstraction_bm.o [1]
OSA_Start               0x00009759    0x42  Code  Gb  fsl_os_abstraction_bm.o [1]
OSA_TaskCreate          0x00009503    0xba  Code  Gb  fsl_os_abstraction_bm.o [1]
OSA_TaskGetId           0x000094c7     0x6  Code  Gb  fsl_os_abstraction_bm.o [1]
OSA_TimeInit            0x000097bb     0x2  Code  Wk  fsl_os_abstraction_bm.o [1]
OutStream_Write         0x00025fc1    0x42  Code  Lc  lz77_init.o [8]
P256_g_point_x          0x00026234    0x20  Data  Gb  ec_p_256.o [6]
P256_g_point_y          0x00026254    0x20  Data  Gb  ec_p_256.o [6]
P256_one                0x00026294    0x20  Data  Gb  ec_p_256.o [6]
P256_orderMinusOne      0x00026274    0x20  Data  Gb  ec_p_256.o [6]
P256_prime_m            0x0000c54c    0x20  Data  Gb  ec_p_256.o [6]
P256_prime_r            0x0000c56c    0x20  Data  Gb  ec_p_256.o [6]
PMC_ConfigureBandgapBuffer
                        0x0000f65d     0x6  Code  Gb  fsl_pmc.o [1]
PORT_ClearPinsInterruptFlags
                        0x0000eea1     0x6  Code  Lc  GPIO_Adapter.o [1]
PORT_GetPinsInterruptFlags
                        0x0000ee9b     0x6  Code  Lc  GPIO_Adapter.o [1]
PORT_SetPinConfig       0x0000ee2f    0x28  Code  Lc  GPIO_Adapter.o [1]
PORT_SetPinInterruptConfig
                        0x0000ee79    0x22  Code  Lc  GPIO_Adapter.o [1]
PORT_SetPinMux          0x0000ee57    0x22  Code  Lc  GPIO_Adapter.o [1]
PORT_SetPinMux          0x000129d7    0x22  Code  Lc  pin_mux.o [1]
PWRLib_ClearRSIMInt     0x00027343     0x4  Code  Wk  ll_isr.o [5]
PWR_ChangeDeepSleepMode
                        0x0001bebf     0x4  Code  Wk  platform_board_init.o [5]
PWR_GetDeepSleepMode    0x00019877     0x4  Code  Wk  platform_board_init.o [5]
PrepWrQ_AddToQueue      0x0001aa9b    0x5c  Code  Gb  gatt_db_prepare_write_queue.o [4]
PrepWrQ_AllocateQueue   0x0001aa61    0x16  Code  Gb  gatt_db_prepare_write_queue.o [4]
PrepWrQ_ExecuteQueue    0x0001aaf7    0x42  Code  Gb  gatt_db_prepare_write_queue.o [4]
PrepWrQ_HasQueueAllocated
                        0x0001aa85    0x16  Code  Gb  gatt_db_prepare_write_queue.o [4]
PrepWrQ_InitQueues      0x0001aa55     0xc  Code  Gb  gatt_db_prepare_write_queue.o [4]
PrepWrQ_ReleaseQueue    0x0001aa77     0xe  Code  Gb  gatt_db_prepare_write_queue.o [4]
RETENTION_STATUS_REG    0x200096e8     0x1  Data  Gb  platform_power_save.o [5]
RNG_GetPseudoRandomNo   0x00005355    0xc8  Code  Gb  RNG.o [1]
RNG_GetRandomNo         0x00005323    0x1c  Code  Gb  RNG.o [1]
RNG_Init                0x00005287    0x9c  Code  Gb  RNG.o [1]
RNG_SetPseudoRandomNoSeed
                        0x0000533f    0x16  Code  Gb  RNG.o [1]
RTC_SetOscCapLoad       0x0000ea73     0xe  Code  Lc  clock_config.o [1]
Region$$Table$$Base     0x00027390           --   Gb  - Linker created -
Region$$Table$$Limit    0x000273bc           --   Gb  - Linker created -
SHA1_Hash               0x00005199    0x1a  Code  Gb  SecLib.o [1]
SHA1_HashFinish         0x00005101    0x98  Code  Gb  SecLib.o [1]
SHA1_HashUpdate         0x00005051    0xb0  Code  Gb  SecLib.o [1]
SHA1_Init               0x0000503b    0x16  Code  Gb  SecLib.o [1]
SHA1_hash_n             0x00005249    0x18  Code  Lc  SecLib.o [1]
ScaningTimerCallback    0x000101bd    0x1a  Code  Lc  wireless_uart.o [1]
SecLib_Init             0x00004c45     0xa  Code  Gb  SecLib.o [1]
SecLib_LeftShiftOneBit  0x00004fd1    0x2a  Code  Lc  SecLib.o [1]
SecLib_Padding          0x00004ffb    0x28  Code  Lc  SecLib.o [1]
SecLib_Xor128           0x00005023    0x18  Code  Lc  SecLib.o [1]
SecLib_XorN             0x00004f2b    0x1a  Code  Gb  SecLib.o [1]
SecLib_get_random       0x000097cd    0x20  Code  Gb  SW_RNG.o [6]
SecLib_set_rng_seed     0x000097bd    0x10  Code  Gb  SW_RNG.o [6]
SerialManagerTask       0x00012b09    0xde  Code  Gb  SerialManager.o [1]
SerialManager_Init      0x00012aad    0x5c  Code  Gb  SerialManager.o [1]
SerialManager_Init::initialized
                        0x20009806     0x1  Data  Lc  SerialManager.o [1]
SerialManager_RxNotify  0x00013057    0x72  Code  Gb  SerialManager.o [1]
SerialManager_TxNotify  0x000130c9    0x92  Code  Gb  SerialManager.o [1]
Serial_AsyncWrite       0x00012ce1    0xda  Code  Gb  SerialManager.o [1]
Serial_InitInterface    0x00012be7    0xe6  Code  Gb  SerialManager.o [1]
Serial_Read             0x00012dd1    0xb2  Code  Gb  SerialManager.o [1]
Serial_RxBufferByteCount
                        0x00012e89    0x82  Code  Gb  SerialManager.o [1]
Serial_SetBaudRate      0x00012f4d    0x4c  Code  Gb  SerialManager.o [1]
Serial_SetRxCallBack    0x00012f11    0x2e  Code  Gb  SerialManager.o [1]
Serial_TxQueueMaintenance
                        0x0001315b    0xb8  Code  Lc  SerialManager.o [1]
Serial_TxQueueMaintenance::txMntOngoing
                        0x20009807     0x1  Data  Lc  SerialManager.o [1]
Serial_UartRxCb         0x00013221    0x26  Code  Lc  SerialManager.o [1]
Serial_UartTxCb         0x00013271     0xc  Code  Lc  SerialManager.o [1]
Serial_WriteInternal    0x00012fad    0xaa  Code  Lc  SerialManager.o [1]
SmBuildPacket_SmpKeyDistEncryptionInformation
                        0x00006aa5    0x12  Code  Gb  sm_packet_op.o [4]
SmBuildPacket_SmpKeyDistIdentityAddressInformation
                        0x00006b59    0x20  Code  Gb  sm_packet_op.o [4]
SmBuildPacket_SmpKeyDistIdentityInformation
                        0x00006b33    0x12  Code  Gb  sm_packet_op.o [4]
SmBuildPacket_SmpKeyDistMasterIdentification
                        0x00006ad3    0x26  Code  Gb  sm_packet_op.o [4]
SmBuildPacket_SmpKeyDistSigningInformation
                        0x00006bc7    0x12  Code  Gb  sm_packet_op.o [4]
SmBuildPacket_SmpKeypressNotification
                        0x00006c83    0x1a  Code  Gb  sm_packet_op.o [4]
SmBuildPacket_SmpPairingConfirm
                        0x00006917    0x12  Code  Gb  sm_packet_op.o [4]
SmBuildPacket_SmpPairingDHKeyCheck
                        0x00006c5d    0x12  Code  Gb  sm_packet_op.o [4]
SmBuildPacket_SmpPairingFailed
                        0x000069a5    0x18  Code  Gb  sm_packet_op.o [4]
SmBuildPacket_SmpPairingPublicKey
                        0x00006bf1    0x2e  Code  Gb  sm_packet_op.o [4]
SmBuildPacket_SmpPairingRandom
                        0x0000694b    0x12  Code  Gb  sm_packet_op.o [4]
SmBuildPacket_SmpPairingRequestRespose
                        0x00006811    0x8a  Code  Gb  sm_packet_op.o [4]
SmBuildPacket_SmpSecurityRequest
                        0x000069f3    0x60  Code  Gb  sm_packet_op.o [4]
SmCrypto_AES128         0x00005611    0x4c  Code  Gb  sm_crypto.o [4]
SmCrypto_ComputeDataSignature
                        0x000055cb    0x46  Code  Gb  sm_crypto.o [4]
SmCrypto_SmpAh          0x0000556f    0x5c  Code  Gb  sm_crypto.o [4]
SmCrypto_SmpC1          0x00005469    0xae  Code  Gb  sm_crypto.o [4]
SmCrypto_SmpF4          0x0000565d    0x68  Code  Gb  sm_crypto.o [4]
SmCrypto_SmpF5          0x000056c5    0xd8  Code  Gb  sm_crypto.o [4]
SmCrypto_SmpF6          0x0000579d    0xa0  Code  Gb  sm_crypto.o [4]
SmCrypto_SmpG2          0x0000583d    0x78  Code  Gb  sm_crypto.o [4]
SmCrypto_SmpS1          0x00005517    0x58  Code  Gb  sm_crypto.o [4]
SmDebug_LogFnc          0x00004bb1    0x30  Code  Gb  sm_debug.o [4]
SmDebug_LogFnc::logFreeEntries
                        0x200004be     0x2  Data  Lc  sm_debug.o [4]
SmDebug_LogFnc::logHeadIndex
                        0x200004bc     0x2  Data  Lc  sm_debug.o [4]
SmState_Idle            0x00000e25   0x2fa  Code  Lc  sm_states.o [4]
SmState_InitiatorWaitForLeScOobData
                        0x000042e9   0x158  Code  Lc  sm_states.o [4]
SmState_InitiatorWaitForLeScPkEPasskey
                        0x00003da9   0x1a6  Code  Lc  sm_states.o [4]
SmState_InitiatorWaitForTKey
                        0x00002195   0x1ac  Code  Lc  sm_states.o [4]
SmState_InitiatorWaitForUlKeysetResponse
                        0x00002899   0x126  Code  Lc  sm_states.o [4]
SmState_ResponderWaitForUlKeysetResponse
                        0x00001a99   0x142  Code  Lc  sm_states.o [4]
SmState_WaitForInitiatorKeysDist
                        0x00001be5   0x128  Code  Lc  sm_states.o [4]
SmState_WaitForInitiatorPublicKey
                        0x000029e5   0x2b6  Code  Lc  sm_states.o [4]
SmState_WaitForLeScJwInitiatorNonce
                        0x00002cc1   0x146  Code  Lc  sm_states.o [4]
SmState_WaitForLeScJwResponderCr
                        0x00003941   0x100  Code  Lc  sm_states.o [4]
SmState_WaitForLeScJwResponderNonce
                        0x00003a61   0x1da  Code  Lc  sm_states.o [4]
SmState_WaitForLeScKeyConfirm
                        0x00003c51   0x13e  Code  Lc  sm_states.o [4]
SmState_WaitForLeScKeyConfirmAndInitiatorDhKeyCheck
                        0x0000341d   0x200  Code  Lc  sm_states.o [4]
SmState_WaitForLeScOobDataAndInitiatorNonce
                        0x00003231   0x1ca  Code  Lc  sm_states.o [4]
SmState_WaitForLeScOobResponderNonce
                        0x00004451   0x14a  Code  Lc  sm_states.o [4]
SmState_WaitForLeScPkEInitiatorNoncei
                        0x000030b1   0x156  Code  Lc  sm_states.o [4]
SmState_WaitForLeScPkEPasskeyAndInitiatorCri
                        0x00002e3d   0x256  Code  Lc  sm_states.o [4]
SmState_WaitForLeScPkEResponderCri
                        0x00003f61   0x114  Code  Lc  sm_states.o [4]
SmState_WaitForLeScPkEResponderNoncei
                        0x00004099   0x22e  Code  Lc  sm_states.o [4]
SmState_WaitForLeScResponderDhKeyCheck
                        0x000045b9   0x182  Code  Lc  sm_states.o [4]
SmState_WaitForMasterStkEncryption
                        0x000017dd   0x2a8  Code  Lc  sm_states.o [4]
SmState_WaitForMrand    0x0000168d   0x130  Code  Lc  sm_states.o [4]
SmState_WaitForPairingResponse
                        0x00001d39   0x310  Code  Lc  sm_states.o [4]
SmState_WaitForPairingResponseParams
                        0x00001155   0x2ce  Code  Lc  sm_states.o [4]
SmState_WaitForResponderKeysDist
                        0x0000272d   0x164  Code  Lc  sm_states.o [4]
SmState_WaitForResponderPublicKey
                        0x00003641   0x2e8  Code  Lc  sm_states.o [4]
SmState_WaitForSconfirm
                        0x00002059   0x120  Code  Lc  sm_states.o [4]
SmState_WaitForSrand    0x00002351   0x19e  Code  Lc  sm_states.o [4]
SmState_WaitForStkLinkEncryption
                        0x00002509   0x20e  Code  Lc  sm_states.o [4]
SmState_WaitForTKeyAndMconfirm
                        0x00001445   0x22e  Code  Lc  sm_states.o [4]
SmStates_BuildAndSendPairingCompleteEvent
                        0x00000d0f    0x54  Code  Lc  sm_states.o [4]
SmStates_BuildAndSendPairingKeysetReceivedEvent
                        0x00000d63    0x9e  Code  Lc  sm_states.o [4]
SmStates_CallLlStateMachine
                        0x000049e9   0x1c8  Code  Gb  sm_states_hci.o [4]
SmStates_CallSmpStateMachine
                        0x00000761    0x34  Code  Lc  sm_states.o [4]
SmStates_CallTbStateMachine
                        0x00004761   0x288  Code  Gb  sm_states_tb.o [4]
SmStates_CheckIfPairingReqCanSatisfyAuthRequirements
                        0x000007e9    0x38  Code  Lc  sm_states.o [4]
SmStates_CmdRequiresDeviceHandle
                        0x0000055d    0x34  Code  Gb  sm_states.o [4]
SmStates_DetermineUlCmdType
                        0x000007a5    0x44  Code  Lc  sm_states.o [4]
SmStates_DistributeKeys
                        0x00000c03   0x10c  Code  Lc  sm_states.o [4]
SmStates_GenerateLeScPkERi
                        0x00000a41    0x2a  Code  Lc  sm_states.o [4]
SmStates_GeneratePairingFailedPacketAndEvent
                        0x00000afb    0x4e  Code  Lc  sm_states.o [4]
SmStates_GetKeyDistPktBitMask
                        0x00000a2b     0xe  Code  Lc  sm_states.o [4]
SmStates_GetKeyDistPktBitMask::smpOpcodeToKeyDistBitMaskTable
                        0x00026228     0xc  Data  Lc  sm_states.o [4]
SmStates_HandleInvalidUnknownPacket
                        0x00000b4d    0x24  Code  Lc  sm_states.o [4]
SmStates_HandleRemotePairingFailure
                        0x00000bb1    0x52  Code  Lc  sm_states.o [4]
SmStates_HandleSmDeviceGlobalMessages
                        0x00000687    0xd0  Code  Lc  sm_states.o [4]
SmStates_HandleSmGlobalMessages
                        0x00000591    0xf6  Code  Lc  sm_states.o [4]
SmStates_HandleUnexpectedPacket
                        0x00000b71    0x20  Code  Lc  sm_states.o [4]
SmStates_KeyDistCurrentlyWaitingForPacket
                        0x00000a6b    0x1e  Code  Lc  sm_states.o [4]
SmStates_RunStateMachine
                        0x00000411   0x14a  Code  Gb  sm_states.o [4]
SmStates_SmpIdleStateCleanup
                        0x00000e01    0x22  Code  Lc  sm_states.o [4]
SmStates_UnpackKeyDistPacket
                        0x000009c1    0x6a  Code  Lc  sm_states.o [4]
SmStates_ValidatePairingResponseKeyDistField
                        0x00000a89    0x72  Code  Lc  sm_states.o [4]
SmUnpack_SmpKeyDistEncryptionInformation
                        0x00006abd    0x16  Code  Gb  sm_packet_op.o [4]
SmUnpack_SmpKeyDistIdentityAddressInformation
                        0x00006b79    0x42  Code  Gb  sm_packet_op.o [4]
SmUnpack_SmpKeyDistIdentityInformation
                        0x00006b45    0x14  Code  Gb  sm_packet_op.o [4]
SmUnpack_SmpKeyDistMasterIdentification
                        0x00006af9    0x3a  Code  Gb  sm_packet_op.o [4]
SmUnpack_SmpKeyDistSigningInformation
                        0x00006bdd    0x14  Code  Gb  sm_packet_op.o [4]
SmUnpack_SmpPairingConfirm
                        0x00006929    0x16  Code  Gb  sm_packet_op.o [4]
SmUnpack_SmpPairingDHKeyCheck
                        0x00006c6f    0x14  Code  Gb  sm_packet_op.o [4]
SmUnpack_SmpPairingFailed
                        0x000069bd    0x36  Code  Gb  sm_packet_op.o [4]
SmUnpack_SmpPairingPublicKey
                        0x00006c1f    0x3e  Code  Gb  sm_packet_op.o [4]
SmUnpack_SmpPairingRandom
                        0x00006979    0x14  Code  Gb  sm_packet_op.o [4]
SmUnpack_SmpPairingRequestResponse
                        0x0000689b    0x7c  Code  Gb  sm_packet_op.o [4]
SmUnpack_SmpSecurityRequest
                        0x00006a53    0x52  Code  Gb  sm_packet_op.o [4]
Sm_ConnHandleToDeviceHandle
                        0x000058ef    0x20  Code  Lc  sm_core.o [4]
Sm_DeterminePairingMethodAndParams
                        0x00000835    0xf2  Code  Lc  sm_states.o [4]
Sm_DeviceHandleToDeviceId
                        0x0000590f    0x1c  Code  Lc  sm_core.o [4]
Sm_DeviceIdToDeviceHandle
                        0x000058d5    0x1a  Code  Lc  sm_core.o [4]
Sm_GeneratePasskey      0x00000927    0x36  Code  Lc  sm_states.o [4]
Sm_GetActivePeerDeviceLtkEdivRand
                        0x00005db9    0x6e  Code  Gb  sm_core.o [4]
Sm_GetActivePeerDeviceLtkProperties
                        0x00005d51    0x58  Code  Gb  sm_core.o [4]
Sm_GetActivePeerDeviceSecProperties
                        0x00005e27    0x46  Code  Gb  sm_core.o [4]
Sm_HciCbEventHandler    0x00005b6d    0xe2  Code  Gb  sm_core.o [4]
Sm_HciEventCallback     0x00005c4f    0x3a  Code  Gb  sm_core.o [4]
Sm_Init                 0x00005e75    0x90  Code  Gb  sm_core.o [4]
Sm_KeyDistDeteminePacketList
                        0x0000096d    0x54  Code  Lc  sm_states.o [4]
Sm_L2caCbMsgHandler     0x00005b11    0x50  Code  Gb  sm_core.o [4]
Sm_SendCmd              0x00005f19    0x56  Code  Gb  sm_core.o [4]
Sm_SendEventToUpperLayer
                        0x00005d07    0x20  Code  Gb  sm_core.o [4]
Sm_SendPacketToL2cap    0x00005d27    0x2a  Code  Gb  sm_core.o [4]
Sm_TimerCallback        0x00005cdb    0x2c  Code  Gb  sm_core.o [4]
Sm_TimerCbEventHandler  0x00005c8d    0x4e  Code  Gb  sm_core.o [4]
Sm_ValidateSmpPacketTypeAndLength
                        0x000067dd    0x22  Code  Lc  sm_packet_op.o [4]
Sm_VerifyCmdParams      0x0000592d   0x1e0  Code  Lc  sm_core.o [4]
StackTimer_ClearIntFlag
                        0x0000ab8d    0x18  Code  Gb  TMR_Adapter.o [1]
StackTimer_Disable      0x0000ab49     0xc  Code  Gb  TMR_Adapter.o [1]
StackTimer_Enable       0x0000ab3b     0xe  Code  Gb  TMR_Adapter.o [1]
StackTimer_GetCounterValue
                        0x0000ab71     0x8  Code  Gb  TMR_Adapter.o [1]
StackTimer_GetInputFrequency
                        0x0000ab55    0x1c  Code  Gb  TMR_Adapter.o [1]
StackTimer_ISR          0x000060cf    0x14  Code  Lc  TimersManager.o [1]
StackTimer_Init         0x0000aadd    0x5e  Code  Gb  TMR_Adapter.o [1]
StackTimer_SetOffsetTicks
                        0x0000ab79    0x14  Code  Gb  TMR_Adapter.o [1]
Switch_CheckIRQ         0x0000fb09    0x30  Code  Lc  Keyboard.o [1]
Switch_Press_ISR        0x00026c75    0x50  Code  Gb  Keyboard.o [1]
SystemCoreClock         0x20000600     0x4  Data  Gb  system_MKW41Z4.o [1]
TMR_AllocateTimer       0x00006081    0x2e  Code  Gb  TimersManager.o [1]
TMR_EnableTimer         0x00006585    0x5a  Code  Gb  TimersManager.o [1]
TMR_FreeTimer           0x000060af    0x20  Code  Gb  TimersManager.o [1]
TMR_GetTimerStatus      0x00005fad     0xc  Code  Lc  TimersManager.o [1]
TMR_GetTimerType        0x00005fcd     0xc  Code  Lc  TimersManager.o [1]
TMR_GetTimestamp        0x000065f9     0x8  Code  Gb  TimersManager.o [1]
TMR_Init                0x00006007    0x56  Code  Gb  TimersManager.o [1]
TMR_Init::initialized   0x2000980c     0x1  Data  Lc  TimersManager.o [1]
TMR_IsTimerActive       0x000060e3    0x1a  Code  Gb  TimersManager.o [1]
TMR_IsTimerReady        0x000060fd    0x1a  Code  Gb  TimersManager.o [1]
TMR_NotifyClkChanged    0x0000605d    0x24  Code  Gb  TimersManager.o [1]
TMR_PITGetTimestamp     0x00006611   0x11e  Code  Gb  TimersManager.o [1]
TMR_SetTimerStatus      0x00005fb9    0x14  Code  Lc  TimersManager.o [1]
TMR_SetTimerType        0x00005fd9    0x14  Code  Lc  TimersManager.o [1]
TMR_StartIntervalTimer  0x00006209    0x1c  Code  Gb  TimersManager.o [1]
TMR_StartLowPowerTimer  0x000061c9    0x22  Code  Gb  TimersManager.o [1]
TMR_StartSingleShotTimer
                        0x00006225    0x1c  Code  Gb  TimersManager.o [1]
TMR_StartTimer          0x0000611d    0x9a  Code  Gb  TimersManager.o [1]
TMR_StopTimer           0x00006241    0xa0  Code  Gb  TimersManager.o [1]
TMR_Task                0x000062e9   0x296  Code  Gb  TimersManager.o [1]
TPM_ClearStatusFlags    0x0000aaa9     0x4  Code  Lc  TMR_Adapter.o [1]
TPM_EnableInterrupts    0x0000e639    0x3a  Code  Gb  fsl_tpm.o [1]
TPM_GetInstance         0x0000e467    0x34  Code  Lc  fsl_tpm.o [1]
TPM_GetStatusFlags      0x0000aaa5     0x4  Code  Lc  TMR_Adapter.o [1]
TPM_Init                0x0000e49b    0x92  Code  Gb  fsl_tpm.o [1]
TPM_SetupOutputCompare  0x0000e545    0xe0  Code  Gb  fsl_tpm.o [1]
TPM_StartTimer          0x0000aaad    0x1a  Code  Lc  TMR_Adapter.o [1]
TPM_StopTimer           0x0000aac7    0x16  Code  Lc  TMR_Adapter.o [1]
TRNG_GetDefaultConfig   0x00008ea9    0x8a  Code  Gb  fsl_trng.o [1]
TRNG_GetRandomData      0x000093dd    0xba  Code  Gb  fsl_trng.o [1]
TRNG_ISR                0x0000541d    0x26  Code  Lc  RNG.o [1]
TRNG_Init               0x00009335    0x7c  Code  Gb  fsl_trng.o [1]
TmrTicksFromMilliseconds
                        0x00005fed    0x1a  Code  Gb  TimersManager.o [1]
TsettleCal              0x0000b0a7     0x1  Data  Gb  fsl_xcvr_trim.o [1]
UartStreamFlushTimerCallback
                        0x00010541     0xe  Code  Lc  wireless_uart.o [1]
Uart_RxCallBack         0x0001055d    0x38  Code  Lc  wireless_uart.o [1]
Uart_TxCallBack         0x00010595     0xc  Code  Lc  wireless_uart.o [1]
Wus_Start               0x000137b1     0xc  Code  Gb  wireless_uart_service.o [1]
Wus_Subscribe           0x000137bd    0x14  Code  Gb  wireless_uart_service.o [1]
Wus_Unsubscribe         0x000137d1     0xa  Code  Gb  wireless_uart_service.o [1]
XCVR_CoexistenceSaveRestoreTimings
                        0x0001459d     0x6  Code  Gb  fsl_xcvr.o [1]
XCVR_Configure          0x00013a85   0x8e4  Code  Gb  fsl_xcvr.o [1]
XCVR_ForceRxWd          0x00014567     0xe  Code  Gb  fsl_xcvr.o [1]
XCVR_ForceRxWu          0x00014559     0xe  Code  Gb  fsl_xcvr.o [1]
XCVR_GetDefaultConfig   0x0001394f    0xd2  Code  Gb  fsl_xcvr.o [1]
XCVR_Init               0x000138a1    0xae  Code  Gb  fsl_xcvr.o [1]
XCVR_OverrideChannel    0x00014465    0xe4  Code  Gb  fsl_xcvr.o [1]
XCVR_SetXtalTrim        0x0001443d    0x28  Code  Gb  fsl_xcvr.o [1]
XKEY                    0x200095d8    0x14  Data  Lc  RNG.o [1]
XcvrCalDelay            0x00018869    0x10  Code  Gb  fsl_xcvr_trim.o [1]
XcvrPanic               0x00014415    0x24  Code  Gb  fsl_xcvr.o [1]
_RAM_END_ {Abs}         0x20017fff          Data  Gb  command line/config [2]
_RAM_START_ {Abs}       0x1fff8000          Data  Gb  command line/config [2]
__BOOT_STACK_ADDRESS {Abs}
                        0x20017bf0          Data  Gb  command line/config [2]
__RAM_VECTOR_TABLE_SIZE {Abs}
                        0x000000c0          Data  Gb  command line/config [2]
__VECTOR_RAM {Abs}      0x1fff8000          Data  Gb  command line/config [2]
__VECTOR_TABLE {Abs}    0x00000000          Data  Gb  command line/config [2]
__aeabi_assert          0x0000c59d    0x18  Code  Gb  fsl_common.o [1]
__aeabi_cfcmple         0x0001b08d          Code  Gb  FltCmpLe.o [7]
__aeabi_f2iz            0x0001b1c9          Code  Gb  FltToS32.o [7]
__aeabi_f2uiz           0x0001b2f1          Code  Gb  FltToU32.o [7]
__aeabi_fadd            0x0001b0b3          Code  Gb  FltAddSub.o [7]
__aeabi_fdiv            0x0001afe3          Code  Gb  FltDiv.o [7]
__aeabi_fmul            0x0001b203          Code  Gb  FltMul.o [7]
__aeabi_i2f             0x0001afad          Code  Gb  I32ToFlt.o [7]
__aeabi_idiv            0x00009821          Code  Gb  I32DivModFast.o [8]
__aeabi_idiv0           0x0000ca79          Code  Gb  IntDivZer.o [8]
__aeabi_idivmod         0x00009821          Code  Gb  I32DivModFast.o [8]
__aeabi_ldiv0           0x0000b0a5          Code  Gb  I64DivZer.o [8]
__aeabi_llsr            0x0000e435          Code  Gb  U64Shr.o [8]
__aeabi_lmul            0x00006741          Code  Gb  I64Mul.o [8]
__aeabi_memclr4         0x00008a25          Code  Gb  ABImemset.o [8]
__aeabi_memclr8         0x00008a25          Code  Gb  ABImemset.o [8]
__aeabi_memcpy4         0x00008a29          Code  Wk  ABImemcpy.o [8]
__aeabi_ui2f            0x0001afc5          Code  Gb  I32ToFlt.o [7]
__aeabi_uidiv           0x00009827          Code  Gb  I32DivModFast.o [8]
__aeabi_uidivmod        0x00009827          Code  Gb  I32DivModFast.o [8]
__aeabi_uldivmod        0x00006773          Code  Gb  I64DivMod.o [8]
__aeabi_uread4          0x0000b0bd          Code  Gb  uread4.o [8]
__aeabi_uwrite4         0x0000b0a9          Code  Gb  uwrite4.o [8]
__cmain                 0x00027471          Code  Gb  cmain.o [8]
__exit                  0x00026165    0x14  Code  Gb  exit.o [9]
__iar_FDint             0x00023a41    0x56  Code  Gb  xfdint.o [7]
__iar_Memset4_word      0x000089f5          Code  Gb  ABImemset.o [8]
__iar_data_init3        0x000272f5    0x28  Code  Gb  data_init.o [8]
__iar_lz77_init3        0x00026003   0x156  Code  Gb  lz77_init.o [8]
__iar_program_start     0x0002762d          Code  Gb  cstartup_M.o [8]
__iar_ui2f              0x0001afc9          Code  Gb  I32ToFlt.o [7]
__iar_zero_init3        0x00027095    0x3c  Code  Gb  zero_init3.o [8]
__low_level_init        0x0002748b     0x4  Code  Gb  low_level_init.o [3]
__vector_table          0x00000000          Data  Gb  vector_table_M.o [8]
_call_main              0x0002747d          Code  Gb  cmain.o [8]
_exit                   0x00027499          Code  Gb  cexit.o [8]
_main                   0x00027487          Code  Gb  cmain.o [8]
abort                   0x00026159     0xa  Code  Gb  abort.o [3]
activeClients           0x20009720     0x1  Data  Gb  gatt_db_prepare_write_queue.o [4]
activeDevices           0x2000782c   0x440  Data  Gb  device_db.o [4]
adData0                 0x00009496     0x1  Data  Lc  app_config.o [1]
adcUserConfig           0x2000968c     0xc  Data  Lc  board.o [1]
adcValue                0x20009764     0x4  Data  Lc  board.o [1]
advScanStruct           0x000274a4    0x18  Data  Lc  app_config.o [1]
ant_mode_config         0x00026cc4    0x48  Data  Gb  fsl_xcvr_ant_config.o [1]
att_InitializeInternalCallback
                        0x00012927     0xa  Code  Gb  att_cb.o [4]
att_ResponseReceived    0x0000e3fd    0x34  Code  Gb  att.o [4]
att_SendData            0x0000df0d   0x4d0  Code  Lc  att.o [4]
att_TimerCallback       0x00012931    0x12  Code  Gb  att_cb.o [4]
att_indexForDeviceId    0x0000e3e5    0x18  Code  Lc  att.o [4]
att_l2caCbMsgHandler    0x00012111   0x816  Code  Gb  att_cb.o [4]
baowen                  0x20000448    0x14  Data  Gb  wireless_uart.o [1]
baowen2                 0x20000408    0x18  Data  Gb  wireless_uart.o [1]
baowen3                 0x2000045c    0x14  Data  Gb  wireless_uart.o [1]
baowen4                 0x20000470    0x14  Data  Gb  wireless_uart.o [1]
baowen5                 0x20000484    0x14  Data  Gb  wireless_uart.o [1]
baowen6                 0x20000498    0x14  Data  Gb  wireless_uart.o [1]
begin128bitUuidsReadingForIncludedServices
                        0x000162dd    0x80  Code  Lc  gatt_client.o [4]
ble_mode_config         0x00026d0c    0x48  Data  Gb  fsl_xcvr_ble_config.o [1]
bt_config               0x200001e0    0x38  Data  Gb  platform_board_init.o [5]
bt_le_get_lcm           0x0001bd9b    0x2e  Code  Gb  ll_utils.o [5]
bt_le_get_lcm_of_n_numbers
                        0x0001bdc9    0x24  Code  Gb  ll_utils.o [5]
bt_le_get_min_value     0x0001bded    0x2c  Code  Gb  ll_utils.o [5]
bt_le_get_min_value_32bit
                        0x0001be19    0x2c  Code  Gb  ll_utils.o [5]
bt_le_is_contain_multiples
                        0x0001bd6d    0x2e  Code  Gb  ll_utils.o [5]
bt_le_sort_ascending_order
                        0x0001bd21    0x4c  Code  Gb  ll_utils.o [5]
calc_dcoc_dac_step      0x0001880d    0x5a  Code  Gb  fsl_xcvr_trim.o [1]
calc_dcoc_dac_step::dc_step
                        0x20009788     0x4  Data  Lc  fsl_xcvr_trim.o [1]
calc_dcoc_dac_step::norm_dc_code
                        0x20009582     0x2  Data  Lc  fsl_xcvr_trim.o [1]
cccd_battery_level_valueArray
                        0x200097ee     0x2  Data  Gb  gatt_database.o [1]
cccd_service_changed_valueArray
                        0x200097ea     0x2  Data  Gb  gatt_database.o [1]
char_appearance_valueArray
                        0x2000057c     0x8  Data  Gb  gatt_database.o [1]
char_battery_level_valueArray
                        0x20000584     0x8  Data  Gb  gatt_database.o [1]
char_device_name_valueArray
                        0x20000574     0x8  Data  Gb  gatt_database.o [1]
char_fw_rev_valueArray  0x200005bc     0x8  Data  Gb  gatt_database.o [1]
char_hw_rev_valueArray  0x200005b4     0x8  Data  Gb  gatt_database.o [1]
char_manuf_name_valueArray
                        0x20000594     0x8  Data  Gb  gatt_database.o [1]
char_model_no_valueArray
                        0x2000059c     0x8  Data  Gb  gatt_database.o [1]
char_serial_no_valueArray
                        0x200005a4     0x8  Data  Gb  gatt_database.o [1]
char_service_changed_valueArray
                        0x2000056c     0x8  Data  Gb  gatt_database.o [1]
char_sw_rev_valueArray  0x200005cc     0x8  Data  Gb  gatt_database.o [1]
char_uart_stream_valueArray
                        0x20000420    0x14  Data  Gb  gatt_database.o [1]
checkAttributeAccess    0x00017d61    0xd2  Code  Gb  gatt_db_att.o [4]
continue128bitUuidsReadingForIncludedServices
                        0x0001635d    0x90  Code  Lc  gatt_client.o [4]
convertPairingParamsSm2Gap
                        0x0002398b    0x8e  Code  Lc  gap_sm_cb.o [4]
convert_to_lsb          0x000212c3    0x1c  Code  Gb  bt_fw_os_al.o [5]
current_xcvr_config     0x20009784     0x4  Data  Lc  fsl_xcvr.o [1]
deriveSmPairingParamsFromGapParams
                        0x00011e61    0x5e  Code  Lc  gap.o [4]
desc_bat_level_valueArray
                        0x2000058c     0x8  Data  Gb  gatt_database.o [1]
dummyBondData           0x20008ddc    0xd8  Data  Gb  device_db.o [4]
ec_JacobiAdd            0x0000b9c3   0x386  Code  Lc  ec_p_256.o [6]
ec_JacobiDouble         0x0000bd51   0x7f8  Code  Lc  ec_p_256.o [6]
enableLdmTimer          0x00011f0f    0x28  Code  Lc  gap.o [4]
exit                    0x0002748f     0x8  Code  Gb  exit.o [3]
findFlagsAdValue        0x00011eeb    0x24  Code  Lc  gap.o [4]
findNextDbIndexFor16BitUuidAndValue
                        0x00017e39    0x4c  Code  Lc  gatt_db_att.o [4]
findNextDbIndexForReadByGroupTypeUuid
                        0x00017eb1    0x28  Code  Lc  gatt_db_att.o [4]
findNextDbIndexForReadByTypeUuid
                        0x00017e89    0x28  Code  Lc  gatt_db_att.o [4]
fnHexToBcd_u8           0x0001020f    0x38  Code  Gb  wireless_uart.o [1]
fnSum                   0x000101e9    0x26  Code  Gb  wireless_uart.o [1]
fp_lec_cmd_handlers     0x00020df8    0xbc  Data  Gb  lec_hci_le_commands.o [5]
fp_lec_convert_cmd_param_handlers
                        0x00020c48    0xbc  Data  Gb  lec_hci_le_commands.o [5]
fp_lec_validate_cmd_param_handlers
                        0x00020d3c    0xbc  Data  Gb  lec_hci_le_commands.o [5]
fp_ll_pdu_ack_handlers  0x00021898    0x58  Data  Gb  ll_pdu.o [5]
fp_ll_pdu_handlers      0x000219bc    0x58  Data  Gb  ll_pdu.o [5]
gAdvParams              0x200004c0    0x10  Data  Gb  app_config.o [1]
gAdvertisingPacketInterval_c
                        0x0000abc6     0x1  Data  Gb  ble_controller_task.o [1]
gApp2Host_TaskQueue     0x20009674     0xc  Data  Gb  ble_host_tasks.o [1]
gAppAdvertisingData     0x20000554     0x8  Data  Gb  app_config.o [1]
gAppScanRspData         0x200096ec     0x8  Data  Gb  app_config.o [1]
gAppSerMgrIf            0x20009812     0x1  Data  Lc  wireless_uart.o [1]
gAutoConnAddingWL       0x20009711     0x1  Data  Gb  gap.o [4]
gBDAddress_c            0x00027640     0x8  Data  Gb  ble_controller_task.o [1]
gConnReqParams          0x200003d0    0x1c  Data  Gb  app_config.o [1]
gControllerTaskId       0x20009750     0x4  Data  Gb  ble_controller_task.o [1]
gDefaultPairActive      0x2000961c     0x1  Data  Gb  gap.o [4]
gDefaultPairingParams   0x20009620     0xc  Data  Gb  gap.o [4]
gEcP256_MultiplicationBufferSize_c
                        0x000276a0     0x4  Data  Gb  ecdh.o [6]
gEnableSingleAdvertisement
                        0x20000620     0x1  Data  Gb  platform_board_init.o [5]
gFreeMessagesCount      0x200097f4     0x2  Data  Gb  MemManager.o [1]
gGapControllerPrivacyTimeout
                        0x2000062a     0x2  Data  Gb  ble_globals.o [1]
gGapDefaultTxOctets     0x20000624     0x2  Data  Gb  ble_globals.o [1]
gGapDefaultTxTime       0x20000626     0x2  Data  Gb  ble_globals.o [1]
gGapHostPrivacyTimeout  0x20000628     0x2  Data  Gb  ble_globals.o [1]
gGapLeScOobHasMitmProtection
                        0x200097fe     0x1  Data  Gb  ble_globals.o [1]
gGattDbAttributeCount_c
                        0x200097f0     0x2  Data  Gb  gatt_database.o [1]
gGattReadNotificationHandles
                        0x200095b0    0x14  Data  Gb  ble_globals.o [1]
gGattWriteNotificationHandles
                        0x2000959c    0x14  Data  Gb  ble_globals.o [1]
gHardwareParameters     0x200093c4    0x4c  Data  Gb  Flash_Adapter.o [1]
gHci2Host_TaskQueue     0x20009680     0xc  Data  Gb  ble_host_tasks.o [1]
gHost_TaskEvent         0x2000975c     0x4  Data  Gb  ble_host_tasks.o [1]
gHost_TaskId            0x20009758     0x4  Data  Gb  ble_host_tasks.o [1]
gInitiatorChannelMap_c  0x0000b0a2     0x1  Data  Gb  ble_controller_task.o [1]
gInterruptDisableCount  0x2000977c     0x4  Data  Gb  fsl_os_abstraction_bm.o [1]
gMCUSleepDuringBleEvents
                        0x20000621     0x1  Data  Gb  platform_board_init.o [5]
gMeshPacketFiltering    0x20009580     0x1  Data  Gb  bt_le_bluetooth.o [5]
gOffsetToFirstInstant_c
                        0x00004c42     0x2  Data  Gb  ble_controller_task.o [1]
gOwnLtkSize             0x20009814     0x1  Data  Gb  gap.o [4]
gPITInitFlag            0x2000980b     0x1  Data  Lc  TimersManager.o [1]
gPairingParameters      0x20000530     0xc  Data  Gb  app_config.o [1]
gPrepareWriteQueues     0x20007c6c   0x2e8  Data  Gb  ble_globals.o [1]
gResetByApplication     0x20009816     0x1  Data  Gb  gap.o [4]
gRfSysClk26MHz_c        0x00009497     0x1  Data  Gb  ble_controller_task.o [1]
gScanChannelMap_c       0x0000abc7     0x1  Data  Gb  ble_controller_task.o [1]
gScanMode               0x20009710     0x1  Data  Gb  gap.o [4]
gScanParams             0x2000055c     0x8  Data  Gb  app_config.o [1]
gSerialManagerTaskId    0x200097ac     0x4  Data  Gb  SerialManager.o [1]
gSingleAdvActive        0x200096d4     0x1  Data  Gb  ll_advertiser.o [5]
gSmpKeys                0x20000310    0x20  Data  Gb  app_config.o [1]
gUseRtos_c              0x0000b0a6     0x1  Data  Gb  fsl_os_abstraction_bm.o [1]
g_bb_intr_en_mask       0x200097e2     0x2  Data  Gb  llh_api.o [5]
g_curTask               0x20009770     0x4  Data  Lc  fsl_os_abstraction_bm.o [1]
g_freeTaskControlBlock  0x20009774     0x4  Data  Lc  fsl_os_abstraction_bm.o [1]
g_is_command_in_progress
                        0x2000981a     0x1  Data  Gb  ll.o [5]
g_is_config_utility_mode
                        0x20009818     0x1  Data  Gb  platform_abs.o [5]
g_is_enabled_llh_idle_interrupt
                        0x200096e9     0x1  Data  Gb  platform_power_save.o [5]
g_lec_command_array     0x20009454    0x40  Data  Gb  lec_hci_le.o [5]
g_lec_event_buffer      0x20009410    0x44  Data  Gb  ll_utils.o [5]
g_ll_current_interrupt_mask
                        0x200097e0     0x2  Data  Gb  llh_api.o [5]
g_slave_clock_accuracy  0x0001eccc    0x10  Data  Gb  ll_connection.o [5]
g_taskControlBlockPool  0x20009200    0x8c  Data  Lc  fsl_os_abstraction_bm.o [1]
g_xtal0Freq             0x20009768     0x4  Data  Gb  fsl_clock.o [1]
g_xtal32Freq            0x2000976c     0x4  Data  Gb  fsl_clock.o [1]
gaBondIdentityHeaderBlobs
                        0x20008cfc    0xe0  Data  Gb  ble_globals.o [1]
gap_addNextAutoConnectAddressInWhiteList
                        0x00011c11    0x32  Code  Gb  gap.o [4]
gap_advertisingDataSet  0x00011b35    0x16  Code  Gb  gap.o [4]
gap_autoConnectIrkCheckComplete
                        0x00011d15    0x2a  Code  Gb  gap.o [4]
gap_checkConnectionSecurity
                        0x000118a3    0xa0  Code  Gb  gap.o [4]
gap_checkForAutoConnect
                        0x00011c49    0xcc  Code  Gb  gap.o [4]
gap_checkSecurityForDatabaseAccess
                        0x0001194d   0x1e2  Code  Gb  gap.o [4]
gap_cm_checkNextCsrk    0x00017205    0x48  Code  Lc  gap_cm.o [4]
gap_cm_checkNextIrk     0x00017157    0xa8  Code  Lc  gap_cm.o [4]
gap_cm_handleSignedWriteCommand
                        0x000170bb    0x60  Code  Gb  gap_cm.o [4]
gap_cm_irkCheckComplete
                        0x0001707b    0x40  Code  Gb  gap_cm.o [4]
gap_cm_notifyConnectedDevice
                        0x00016f2d    0xfe  Code  Gb  gap_cm.o [4]
gap_cm_signatureVerificationComplete
                        0x0001711b    0x3c  Code  Gb  gap_cm.o [4]
gap_cm_verifyPraAtAppRequest
                        0x0001702b    0x50  Code  Gb  gap_cm.o [4]
gap_discoveryFilterMatch
                        0x00011d3f    0x3e  Code  Gb  gap.o [4]
gap_enableScanning      0x00011bed    0x24  Code  Gb  gap.o [4]
gap_saveCentralAddressResolution
                        0x00011df9    0x34  Code  Gb  gap.o [4]
gap_scanRspDataSet      0x00011b51     0xa  Code  Gb  gap.o [4]
gap_scanningParametersSet
                        0x00011bbd    0x28  Code  Gb  gap.o [4]
gap_sendLocalPasskey    0x0001187d    0x26  Code  Gb  gap.o [4]
gap_triggerAdvertisingCallback
                        0x00011b79    0x10  Code  Gb  gap.o [4]
gap_triggerConnectionCallback
                        0x00011b99    0x24  Code  Gb  gap.o [4]
gap_triggerGenericCallback
                        0x00011b65    0x10  Code  Gb  gap.o [4]
gap_triggerScanningCallback
                        0x00011b89    0x10  Code  Gb  gap.o [4]
gattClient_resetProcedureForDeviceId
                        0x000152ad     0xc  Code  Gb  gatt_client.o [4]
gattDatabase            0x200005f0     0x4  Data  Gb  gatt_database.o [1]
gattDb_getCharacteristicEndIndex
                        0x00018571    0x44  Code  Lc  gatt_db_app.o [4]
gattServer_resetProcedureForDeviceId
                        0x00016629     0x8  Code  Gb  gatt_server.o [4]
gatt_dataSigningComplete
                        0x00015243    0x66  Code  Gb  gatt_client.o [4]
gcGapMaximumBondedDevices_d
                        0x20000623     0x1  Data  Gb  ble_globals.o [1]
gcGattDbMaxPrepareWriteOperationsInQueue_c
                        0x2000063d     0x1  Data  Gb  ble_globals.o [1]
gcGattMaxHandleCountForWriteNotifications_c
                        0x2000063c     0x1  Data  Gb  ble_globals.o [1]
getGapKeyFlags          0x00023a19    0x28  Code  Lc  gap_sm_cb.o [4]
gfsk_bt_0p3_h_0p5_mode_config
                        0x00026d54    0x48  Data  Gb  fsl_xcvr_gfsk_bt_0p3_h_0p5_config.o [1]
gfsk_bt_0p5_h_0p32_mode_config
                        0x00026d9c    0x48  Data  Gb  fsl_xcvr_gfsk_bt_0p5_h_0p32_config.o [1]
gfsk_bt_0p5_h_0p5_mode_config
                        0x00026de4    0x48  Data  Gb  fsl_xcvr_gfsk_bt_0p5_h_0p5_config.o [1]
gfsk_bt_0p5_h_0p7_mode_config
                        0x00026e2c    0x48  Data  Gb  fsl_xcvr_gfsk_bt_0p5_h_0p7_config.o [1]
gfsk_bt_0p5_h_1p0_mode_config
                        0x00026e74    0x48  Data  Gb  fsl_xcvr_gfsk_bt_0p5_h_1p0_config.o [1]
gfsk_bt_0p7_h_0p5_mode_config
                        0x00026ebc    0x48  Data  Gb  fsl_xcvr_gfsk_bt_0p7_h_0p5_config.o [1]
handleClientExchangeMtuRequest
                        0x00016681    0x44  Code  Lc  gatt_server.o [4]
handleClientExecuteWriteRequest
                        0x00016d33    0x66  Code  Lc  gatt_server.o [4]
handleClientFindByTypeValueRequest
                        0x00016741    0x52  Code  Lc  gatt_server.o [4]
handleClientFindInformationRequest
                        0x000166e1    0x4c  Code  Lc  gatt_server.o [4]
handleClientHandleValueConfirmation
                        0x00016d99    0x22  Code  Lc  gatt_server.o [4]
handleClientPrepareWriteRequest
                        0x00016ce7    0x4c  Code  Lc  gatt_server.o [4]
handleClientReadBlobRequest
                        0x00016889    0x4c  Code  Lc  gatt_server.o [4]
handleClientReadByGroupTypeRequest
                        0x00016929    0x52  Code  Lc  gatt_server.o [4]
handleClientReadByTypeRequest
                        0x000167a5    0x52  Code  Lc  gatt_server.o [4]
handleClientReadMultipleRequest
                        0x000168dd    0x4c  Code  Lc  gatt_server.o [4]
handleClientReadRequest
                        0x00016801    0x88  Code  Lc  gatt_server.o [4]
handleClientSignedWriteCommand
                        0x00016cc1    0x26  Code  Lc  gatt_server.o [4]
handleClientTimeout     0x00016631    0x44  Code  Gb  gatt_server.o [4]
handleClientWriteCommand
                        0x00016c5f    0x56  Code  Lc  gatt_server.o [4]
handleClientWriteRequest
                        0x0001697b    0xdc  Code  Lc  gatt_server.o [4]
handleSendAttributeReadStatus
                        0x00016a57    0x94  Code  Lc  gatt_server.o [4]
handleSendInstantNotificationIndication
                        0x00016bd7    0x88  Code  Lc  gatt_server.o [4]
handleSendNotificationIndication
                        0x00016af5    0xe2  Code  Lc  gatt_server.o [4]
handleServerErrorResponse
                        0x000152c5   0x292  Code  Lc  gatt_client.o [4]
handleServerExchangeMtuResponse
                        0x00015561    0x48  Code  Lc  gatt_client.o [4]
handleServerExecuteWriteResponse
                        0x0001621f     0x2  Code  Lc  gatt_client.o [4]
handleServerFindByTypeValueResponse
                        0x0001570f    0xda  Code  Lc  gatt_client.o [4]
handleServerFindInformationResponse
                        0x000155a9   0x166  Code  Lc  gatt_client.o [4]
handleServerHandleValueIndication
                        0x00016271    0x20  Code  Lc  gatt_client.o [4]
handleServerHandleValueNotification
                        0x00016255    0x16  Code  Lc  gatt_client.o [4]
handleServerPrepareWriteResponse
                        0x000160e5   0x13a  Code  Lc  gatt_client.o [4]
handleServerReadBlobResponse
                        0x00015e79     0x8  Code  Lc  gatt_client.o [4]
handleServerReadByGroupTypeResponse
                        0x00015f71   0x166  Code  Lc  gatt_client.o [4]
handleServerReadByTypeResponse
                        0x000157f9   0x4f0  Code  Lc  gatt_client.o [4]
handleServerReadMultipleResponse
                        0x00015e81    0xe8  Code  Lc  gatt_client.o [4]
handleServerReadResponse
                        0x00015ce9   0x18a  Code  Lc  gatt_client.o [4]
handleServerTimeout     0x00016295    0x44  Code  Lc  gatt_client.o [4]
handleServerWriteResponse
                        0x000160e1     0x4  Code  Lc  gatt_client.o [4]
handleUnsupportedOpcode
                        0x00016dbb    0x16  Code  Lc  gatt_server.o [4]
handleVerifiedSignedWriteCommand
                        0x000165b7    0x72  Code  Gb  gatt_server.o [4]
handle_hci_vendor_read_platform_reg
                        0x00023bcf    0x5c  Code  Gb  platform_vendor_cmds.o [5]
handle_hci_vendor_sleep_cmd
                        0x00023bbf    0x10  Code  Gb  platform_vendor_cmds.o [5]
handle_hci_vendor_write_platform_reg
                        0x00023c2b     0xc  Code  Gb  platform_vendor_cmds.o [5]
handle_ifr              0x000186d9    0xee  Code  Gb  ifr_radio.o [1]
hardware_init           0x0000c65f   0x118  Code  Gb  board.o [1]
hardware_init::initialized
                        0x200097ff     0x1  Data  Lc  board.o [1]
hciCommandCompleteCallback
                        0x00022a31    0x1e  Code  Gb  gap_hci_cb.o [4]
hciCommandCompleteCbMsgHandler
                        0x00022f09   0x5fc  Code  Gb  gap_hci_cb.o [4]
hciCommandStatusCallback
                        0x00022a4f    0x1e  Code  Gb  gap_hci_cb.o [4]
hciCommandStatusCbMsgHandler
                        0x00023539    0x28  Code  Gb  gap_hci_cb.o [4]
hciGenericCallback      0x00022a95    0x1e  Code  Gb  gap_hci_cb.o [4]
hciGenericCbMsgHandler  0x00023561    0x5e  Code  Gb  gap_hci_cb.o [4]
hciLeCallback           0x000229ad    0x84  Code  Gb  gap_hci_cb.o [4]
hciLeCbMsgHandler       0x00022ab3   0x44a  Code  Gb  gap_hci_cb.o [4]
hciLocalData            0x200002ec    0x20  Data  Lc  hci_commands.o [4]
hci_alloc_event_buffer  0x0001a29d     0xe  Code  Gb  lec_hci_le_utils.o [5]
hci_free_event_buffer   0x0001a2ab     0x8  Code  Gb  lec_hci_le_utils.o [5]
hci_free_rx_data_buffer
                        0x0001a2b3     0x8  Code  Gb  lec_hci_le_utils.o [5]
hci_generate_le_advertising_report_event
                        0x00024c69     0xe  Code  Gb  lec_hci_le_scan_commands.o [5]
hci_generate_le_conn_update_complete_event
                        0x00020887    0x58  Code  Gb  lec_hci_le_conn_commands.o [5]
hci_generate_le_connection_complete_event
                        0x000207c7    0xc0  Code  Gb  lec_hci_le_conn_commands.o [5]
hci_generate_le_data_len_change_event
                        0x00020b6d    0x5e  Code  Gb  lec_hci_le_conn_commands.o [5]
hci_generate_le_encryption_change_event
                        0x000209e9    0x22  Code  Gb  lec_hci_le_conn_commands.o [5]
hci_generate_le_encryption_key_refresh_event
                        0x00020a23    0x2e  Code  Gb  lec_hci_le_conn_commands.o [5]
hci_generate_le_long_term_key_req_event
                        0x0002098d    0x4c  Code  Gb  lec_hci_le_conn_commands.o [5]
hci_generate_le_no_of_completed_events
                        0x000208df    0x34  Code  Gb  lec_hci_le_conn_commands.o [5]
hci_generate_le_rd_remote_used_feat_event
                        0x00020771    0x56  Code  Gb  lec_hci_le_conn_commands.o [5]
hci_generate_le_remote_version_information_complete_event
                        0x00020913    0x4a  Code  Gb  lec_hci_le_conn_commands.o [5]
hci_le_generate_authenticated_payload_timeout_expired_event
                        0x00020add    0x28  Code  Gb  lec_hci_le_conn_commands.o [5]
hci_le_generate_command_complete_event
                        0x0002416f    0x1e  Code  Gb  lec_hci_le.o [5]
hci_le_generate_command_status_event
                        0x00020ecf    0x34  Code  Gb  lec_hci_le_commands.o [5]
hci_le_generate_disconnection_complete_event
                        0x0002095d    0x24  Code  Gb  lec_hci_le_conn_commands.o [5]
hci_le_generate_encrypt_cmd_complete_event
                        0x000212e9    0x3e  Code  Gb  lec_hci_le_encryption_commands.o [5]
hci_le_generate_event   0x000241a1    0x24  Code  Gb  lec_hci_le.o [5]
hci_le_generate_read_authenticated_payload_timeout_cmd_complete_event
                        0x00020a51    0x48  Code  Gb  lec_hci_le_conn_commands.o [5]
hci_le_generate_read_maximum_data_length_event
                        0x00020bcd    0x58  Code  Gb  lec_hci_le_conn_commands.o [5]
hci_le_generate_read_rpa_event
                        0x000210a5    0x46  Code  Gb  lec_hci_le_commands.o [5]
hci_le_generate_remote_connection_parameter_request_event
                        0x00020b0f    0x5e  Code  Gb  lec_hci_le_conn_commands.o [5]
hci_le_generate_test_end_cmd_complete_event
                        0x00021459    0x38  Code  Gb  lec_hci_le_common_commands.o [5]
hci_le_generate_vendor_test_end_cmd_complete_event
                        0x00023daf    0x4a  Code  Gb  platform_vendor_cmds.o [5]
hci_le_generate_write_authenticated_payload_timeout_cmd_complete_event
                        0x00020a99    0x36  Code  Gb  lec_hci_le_conn_commands.o [5]
hci_le_get_supported_commands
                        0x00021495    0x8e  Code  Gb  lec_hci_le_common_commands.o [5]
hci_le_initialize_data  0x0001a211     0xc  Code  Gb  lec_hci_le_utils.o [5]
hci_le_module_reset     0x0001a21d     0xa  Code  Gb  lec_hci_le_utils.o [5]
hci_le_pass_event_through_event_mask
                        0x0001a227    0x6c  Code  Gb  lec_hci_le_utils.o [5]
hci_td_deliver_acl_data_to_host
                        0x000198ad    0x1e  Code  Gb  hci_td_api.o [5]
hci_td_deliver_event_to_host
                        0x00019899    0x14  Code  Gb  hci_td_api.o [5]
hci_td_handle_received_packet
                        0x0001a2bd    0xee  Code  Gb  hci_td.o [5]
hci_td_handle_send_single_adv
                        0x0001a3ab    0xd8  Code  Gb  hci_td.o [5]
hci_td_init             0x0001987d    0x18  Code  Gb  hci_td_api.o [5]
hci_td_struct           0x2000928c    0x8c  Data  Gb  hci_td_api.o [5]
hci_td_tx_packet        0x0001a4a3    0x2c  Code  Gb  hci_td.o [5]
hci_td_tx_packet_data   0x0001a483    0x20  Code  Gb  hci_td.o [5]
hci_validate_disconnection_command
                        0x000255c3    0x2e  Code  Gb  lec_hci_param_validation.o [5]
hci_validate_le_add_dev_in_resolving_list_cmd
                        0x00025929     0xe  Code  Gb  lec_hci_param_validation.o [5]
hci_validate_le_add_rem_dev_in_wh_list_cmd
                        0x00025849     0xe  Code  Gb  lec_hci_param_validation.o [5]
hci_validate_le_clear_resolving_list_command
                        0x00025945     0x4  Code  Gb  lec_hci_param_validation.o [5]
hci_validate_le_clear_whitelist_command
                        0x00025845     0x4  Code  Gb  lec_hci_param_validation.o [5]
hci_validate_le_connection_update_command
                        0x00025687    0x5e  Code  Gb  lec_hci_param_validation.o [5]
hci_validate_le_create_connection_cancel_command
                        0x0002566b     0x4  Code  Gb  lec_hci_param_validation.o [5]
hci_validate_le_create_connection_command
                        0x000255f1    0x7a  Code  Gb  lec_hci_param_validation.o [5]
hci_validate_le_default_command
                        0x00025501     0x4  Code  Gb  lec_hci_param_validation.o [5]
hci_validate_le_encrypt_cmd_params
                        0x0002583d     0x4  Code  Gb  lec_hci_param_validation.o [5]
hci_validate_le_longterm_key_req_neg_reply_command
                        0x00025715    0x14  Code  Gb  lec_hci_param_validation.o [5]
hci_validate_le_longterm_key_req_reply_command
                        0x00025701    0x14  Code  Gb  lec_hci_param_validation.o [5]
hci_validate_le_read_ch_map_command
                        0x00025857    0x14  Code  Gb  lec_hci_param_validation.o [5]
hci_validate_le_read_maximum_data_length_command
                        0x00025835     0x4  Code  Gb  lec_hci_param_validation.o [5]
hci_validate_le_read_remote_feat_command
                        0x0002566f    0x18  Code  Gb  lec_hci_param_validation.o [5]
hci_validate_le_read_resolving_list_size_command
                        0x00025949     0x4  Code  Gb  lec_hci_param_validation.o [5]
hci_validate_le_read_suggested_def_data_len_command
                        0x00025831     0x4  Code  Gb  lec_hci_param_validation.o [5]
hci_validate_le_read_whitelist_size_command
                        0x00025841     0x4  Code  Gb  lec_hci_param_validation.o [5]
hci_validate_le_receiver_test_command
                        0x0002588d     0xe  Code  Gb  lec_hci_param_validation.o [5]
hci_validate_le_rem_dev_from_resolving_list_cmd
                        0x00025937     0xe  Code  Gb  lec_hci_param_validation.o [5]
hci_validate_le_set_adv_enable
                        0x0002556f     0xe  Code  Gb  lec_hci_param_validation.o [5]
hci_validate_le_set_adv_params_command
                        0x00025505    0x5c  Code  Gb  lec_hci_param_validation.o [5]
hci_validate_le_set_adv_scan_resp_data_command
                        0x00025561     0xe  Code  Gb  lec_hci_param_validation.o [5]
hci_validate_le_set_data_length_command
                        0x000257dd    0x2e  Code  Gb  lec_hci_param_validation.o [5]
hci_validate_le_set_event_mask_command
                        0x000254e5    0x1c  Code  Gb  lec_hci_param_validation.o [5]
hci_validate_le_set_host_ch_map_command
                        0x0002586b    0x22  Code  Gb  lec_hci_param_validation.o [5]
hci_validate_le_set_random_address_command
                        0x000255bf     0x4  Code  Gb  lec_hci_param_validation.o [5]
hci_validate_le_set_scan_enable
                        0x000255ad    0x12  Code  Gb  lec_hci_param_validation.o [5]
hci_validate_le_set_scan_params_command
                        0x0002557d    0x30  Code  Gb  lec_hci_param_validation.o [5]
hci_validate_le_start_encryption_command
                        0x000256e9    0x18  Code  Gb  lec_hci_param_validation.o [5]
hci_validate_le_test_end_command
                        0x000258af     0x4  Code  Gb  lec_hci_param_validation.o [5]
hci_validate_le_transmitter_test_command
                        0x0002589b    0x14  Code  Gb  lec_hci_param_validation.o [5]
hci_validate_le_write_suggested_def_data_len_command
                        0x0002580b    0x1c  Code  Gb  lec_hci_param_validation.o [5]
hci_validate_read_authenticated_payload_timeout_command
                        0x00025729    0x14  Code  Gb  lec_hci_param_validation.o [5]
hci_validate_read_resolvable_address_command
                        0x000258e7     0xe  Code  Gb  lec_hci_param_validation.o [5]
hci_validate_read_rssi_command
                        0x000258d3    0x14  Code  Gb  lec_hci_param_validation.o [5]
hci_validate_read_transmit_power_level_command
                        0x000258b3    0x20  Code  Gb  lec_hci_param_validation.o [5]
hci_validate_remote_connection_parameter_request_negative_reply_command
                        0x000257bd    0x20  Code  Gb  lec_hci_param_validation.o [5]
hci_validate_remote_connection_parameter_request_reply_command
                        0x0002575d    0x5a  Code  Gb  lec_hci_param_validation.o [5]
hci_validate_reset_command
                        0x00025839     0x4  Code  Gb  lec_hci_param_validation.o [5]
hci_validate_set_address_resolution_enable_command
                        0x000258f5     0xe  Code  Gb  lec_hci_param_validation.o [5]
hci_validate_set_resolvable_private_address_timeout_command
                        0x00025903    0x14  Code  Gb  lec_hci_param_validation.o [5]
hci_validate_write_authenticated_payload_timeout_command
                        0x0002573d    0x20  Code  Gb  lec_hci_param_validation.o [5]
identityHeaderList      0x20009598     0x4  Data  Gb  device_db.o [4]
ifr_read_addr           0x20009798     0x4  Data  Lc  ifr_radio.o [1]
isControlPointHandle    0x00016dd1    0x28  Code  Lc  gatt_server.o [4]
is_le_connection_handle
                        0x0001e321    0x24  Code  Gb  ll_connection.o [5]
kbdSwButtons            0x2000960c    0x10  Data  Gb  Keyboard.o [1]
l2caConfigStruct        0x200096c8     0xc  Data  Lc  gap_hci_cb.o [4]
l2caLocalData           0x20007f54    0x7c  Data  Gb  l2ca_resource_manager.o [4]
ldmTimeout              0x00011f3d    0x22  Code  Lc  gap.o [4]
le_allocate_command_buffer
                        0x000211dd    0x20  Code  Gb  bt_fw_os_al.o [5]
le_allocate_event_buffer
                        0x000211bd    0x1c  Code  Gb  bt_fw_os_al.o [5]
le_allocate_rx_data_buffer
                        0x0002123b    0x24  Code  Gb  bt_fw_os_al.o [5]
le_allocate_rx_pdu_buffer
                        0x00021283    0x1c  Code  Gb  bt_fw_os_al.o [5]
le_allocate_tx_data_buffer
                        0x0002120b    0x2a  Code  Gb  bt_fw_os_al.o [5]
le_allocate_tx_pdu_buffer
                        0x00021263    0x1c  Code  Gb  bt_fw_os_al.o [5]
le_allocate_txn_buffer  0x000212a3    0x1c  Code  Gb  bt_fw_os_al.o [5]
le_assign_connection_handle
                        0x0001e34b    0x28  Code  Gb  ll_connection.o [5]
le_command_param_len    0x0002118c    0x30  Data  Gb  lec_hci_le_commands.o [5]
le_conn_read_register   0x0001bbf3    0x12  Code  Gb  ll_utils.o [5]
le_conn_set_register_bit
                        0x000215ff    0x16  Code  Gb  llh_utils.o [5]
le_conn_write_register  0x0001bc05    0x16  Code  Gb  ll_utils.o [5]
le_conn_write_register_field
                        0x000215b9    0x1a  Code  Gb  llh_utils.o [5]
le_free_command_buffer  0x000211fd     0x2  Code  Gb  bt_fw_os_al.o [5]
le_free_event_buffer    0x000211d9     0x4  Code  Gb  bt_fw_os_al.o [5]
le_free_rx_data_buffer  0x0002125f     0x4  Code  Gb  bt_fw_os_al.o [5]
le_free_rx_pdu_buffer   0x0002129f     0x4  Code  Gb  bt_fw_os_al.o [5]
le_free_tx_data_buffer  0x00021235     0x6  Code  Gb  bt_fw_os_al.o [5]
le_free_tx_pdu_buffer   0x0002127f     0x4  Code  Gb  bt_fw_os_al.o [5]
le_free_txn_buffer      0x000212bf     0x4  Code  Gb  bt_fw_os_al.o [5]
le_get_connection_index
                        0x0001e345     0x6  Code  Gb  ll_connection.o [5]
le_read_conn_fifo       0x0001d061    0x2e  Code  Gb  llh_api.o [5]
le_set_register_bit     0x00021615    0x16  Code  Gb  llh_utils.o [5]
le_write_conn_index     0x0001bbe7     0xc  Code  Gb  ll_utils.o [5]
le_write_register_field
                        0x000215d3    0x2c  Code  Gb  llh_utils.o [5]
lec_generate_br_edr_command_complete_event
                        0x00025059   0x134  Code  Gb  lec_hci_br_edr_commands.o [5]
lec_generate_le_command_complete_event
                        0x00020f03   0x194  Code  Gb  lec_hci_le_commands.o [5]
lec_generate_vendor_command_complete_event
                        0x00024c79     0x8  Code  Gb  lec_hci_le_vendor_commands.o [5]
lec_get_expected_br_edr_cmd_param_length
                        0x00024ff5    0x58  Code  Gb  lec_hci_br_edr_commands.o [5]
lec_get_expected_cmd_param_length
                        0x00024151    0x1e  Code  Gb  lec_hci_le.o [5]
lec_get_expected_le_cmd_param_length
                        0x00020eb5    0x1a  Code  Gb  lec_hci_le_commands.o [5]
lec_get_expected_vendor_cmd_param_length
                        0x00024c81    0x1c  Code  Gb  lec_hci_le_vendor_commands.o [5]
lec_hci_convert_add_dev_resolving_list_command
                        0x000254b1    0x30  Code  Gb  lec_hci_param_converter.o [5]
lec_hci_convert_add_dev_whitelist_command
                        0x00025257     0x4  Code  Gb  lec_hci_param_converter.o [5]
lec_hci_convert_br_edr_command_params
                        0x00024e0d    0x6e  Code  Gb  lec_hci_br_edr_commands.o [5]
lec_hci_convert_br_edr_set_event_mask_command
                        0x000252ad     0xc  Code  Gb  lec_hci_param_converter.o [5]
lec_hci_convert_connection_update_command
                        0x00025337     0x2  Code  Gb  lec_hci_param_converter.o [5]
lec_hci_convert_create_connection_command
                        0x000252b9    0x7e  Code  Gb  lec_hci_param_converter.o [5]
lec_hci_convert_default_command
                        0x000251b5     0x2  Code  Gb  lec_hci_param_converter.o [5]
lec_hci_convert_disconnect_command
                        0x0002539f     0x2  Code  Gb  lec_hci_param_converter.o [5]
lec_hci_convert_encrypt_command
                        0x0002527d    0x20  Code  Gb  lec_hci_param_converter.o [5]
lec_hci_convert_le_command_params
                        0x00020c2d    0x1a  Code  Gb  lec_hci_le_commands.o [5]
lec_hci_convert_le_generate_dh_key_command
                        0x00025451    0x20  Code  Gb  lec_hci_param_converter.o [5]
lec_hci_convert_long_term_key_req_neg_reply_command
                        0x00025399     0x2  Code  Gb  lec_hci_param_converter.o [5]
lec_hci_convert_long_term_key_req_reply_command
                        0x00025381    0x18  Code  Gb  lec_hci_param_converter.o [5]
lec_hci_convert_read_authenticated_payload_timeout_command
                        0x0002539b     0x2  Code  Gb  lec_hci_param_converter.o [5]
lec_hci_convert_read_bb_reg_command
                        0x00025477     0x2  Code  Gb  lec_hci_param_converter.o [5]
lec_hci_convert_read_chn_map_command
                        0x0002527b     0x2  Code  Gb  lec_hci_param_converter.o [5]
lec_hci_convert_read_conn_reg_command
                        0x00023e43    0x1a  Code  Gb  platform_vendor_cmds.o [5]
lec_hci_convert_read_local_resolvable_address_command
                        0x000254a5     0x4  Code  Gb  lec_hci_param_converter.o [5]
lec_hci_convert_read_peer_resolvable_address_command
                        0x000254a1     0x4  Code  Gb  lec_hci_param_converter.o [5]
lec_hci_convert_read_pf_reg_command
                        0x00023c37    0x1e  Code  Gb  platform_vendor_cmds.o [5]
lec_hci_convert_read_remote_used_feat_command
                        0x00025339     0x2  Code  Gb  lec_hci_param_converter.o [5]
lec_hci_convert_read_rf_reg_command
                        0x00025479     0x6  Code  Gb  lec_hci_param_converter.o [5]
lec_hci_convert_read_rssi_command
                        0x00025473     0x2  Code  Gb  lec_hci_param_converter.o [5]
lec_hci_convert_read_transmit_power_level_command
                        0x00025471     0x2  Code  Gb  lec_hci_param_converter.o [5]
lec_hci_convert_receiver_test_command
                        0x0002529d     0x6  Code  Gb  lec_hci_param_converter.o [5]
lec_hci_convert_remote_connection_parameter_request_negative_reply_command
                        0x000253fb     0x2  Code  Gb  lec_hci_param_converter.o [5]
lec_hci_convert_remote_connection_parameter_request_reply_command
                        0x000253a3     0x2  Code  Gb  lec_hci_param_converter.o [5]
lec_hci_convert_remote_version_info_command
                        0x000253a1     0x2  Code  Gb  lec_hci_param_converter.o [5]
lec_hci_convert_remove_dev_from_resolving_list_command
                        0x000254e1     0x4  Code  Gb  lec_hci_param_converter.o [5]
lec_hci_convert_remove_dev_whitelist_command
                        0x0002525b     0x2  Code  Gb  lec_hci_param_converter.o [5]
lec_hci_convert_resolvable_private_address_timeout_command
                        0x000254af     0x2  Code  Gb  lec_hci_param_converter.o [5]
lec_hci_convert_set_address_resolution_enable_command
                        0x000254a9     0x6  Code  Gb  lec_hci_param_converter.o [5]
lec_hci_convert_set_adv_data_command
                        0x00025201    0x10  Code  Gb  lec_hci_param_converter.o [5]
lec_hci_convert_set_adv_enable_command
                        0x00025221     0x6  Code  Gb  lec_hci_param_converter.o [5]
lec_hci_convert_set_adv_param_command
                        0x000251c3    0x3e  Code  Gb  lec_hci_param_converter.o [5]
lec_hci_convert_set_bd_addr_cmd
                        0x00023ca5     0xe  Code  Gb  platform_vendor_cmds.o [5]
lec_hci_convert_set_data_length_command
                        0x0002540f    0x26  Code  Gb  lec_hci_param_converter.o [5]
lec_hci_convert_set_event_mask_command
                        0x000251a5    0x10  Code  Gb  lec_hci_param_converter.o [5]
lec_hci_convert_set_host_chn_classsification_command
                        0x0002526f     0xc  Code  Gb  lec_hci_param_converter.o [5]
lec_hci_convert_set_local_sca_command
                        0x00023e5d    0x12  Code  Gb  platform_vendor_cmds.o [5]
lec_hci_convert_set_rand_address_command
                        0x000251b7     0xc  Code  Gb  lec_hci_param_converter.o [5]
lec_hci_convert_set_scan_enable_command
                        0x0002524d     0xa  Code  Gb  lec_hci_param_converter.o [5]
lec_hci_convert_set_scan_param_command
                        0x00025227    0x26  Code  Gb  lec_hci_param_converter.o [5]
lec_hci_convert_set_scan_response_command
                        0x00025211    0x10  Code  Gb  lec_hci_param_converter.o [5]
lec_hci_convert_start_encryption_command
                        0x00025349    0x38  Code  Gb  lec_hci_param_converter.o [5]
lec_hci_convert_transmitter_test_command
                        0x000252a3     0xa  Code  Gb  lec_hci_param_converter.o [5]
lec_hci_convert_vendor_command_params
                        0x00024c9d    0x34  Code  Gb  lec_hci_le_vendor_commands.o [5]
lec_hci_convert_vendor_config_tx_power_cmd
                        0x00023ce5     0xa  Code  Gb  platform_vendor_cmds.o [5]
lec_hci_convert_vendor_start_dtm_tx_cmd
                        0x00023ccb    0x1a  Code  Gb  platform_vendor_cmds.o [5]
lec_hci_convert_write_authenticated_payload_timeout_command
                        0x0002539d     0x2  Code  Gb  lec_hci_param_converter.o [5]
lec_hci_convert_write_bb_reg_command
                        0x00025475     0x2  Code  Gb  lec_hci_param_converter.o [5]
lec_hci_convert_write_conn_reg_command
                        0x00023e1d    0x26  Code  Gb  platform_vendor_cmds.o [5]
lec_hci_convert_write_pf_reg_command
                        0x00023c55    0x3a  Code  Gb  platform_vendor_cmds.o [5]
lec_hci_convert_write_rf_reg_command
                        0x0002547f    0x22  Code  Gb  lec_hci_param_converter.o [5]
lec_hci_convert_write_suggested_def_data_len_command
                        0x00025435     0x2  Code  Gb  lec_hci_param_converter.o [5]
lec_hci_fill_command_complete_header
                        0x000210f7    0x1c  Code  Gb  lec_hci_le_commands.o [5]
lec_hci_generate_dhkey_complete_event
                        0x0002114f    0x3c  Code  Gb  lec_hci_le_commands.o [5]
lec_hci_generate_read_local_p256_public_key_complete_event
                        0x00021113    0x3c  Code  Gb  lec_hci_le_commands.o [5]
lec_hci_handle_add_to_resolving_list_command
                        0x00021561     0x8  Code  Gb  lec_hci_le_common_commands.o [5]
lec_hci_handle_add_to_white_list_command
                        0x00021353     0x8  Code  Gb  lec_hci_le_common_commands.o [5]
lec_hci_handle_br_edr_command
                        0x00024e7b    0x9a  Code  Gb  lec_hci_br_edr_commands.o [5]
lec_hci_handle_br_edr_set_event_mask_command
                        0x00024f2d    0x3e  Code  Gb  lec_hci_br_edr_commands.o [5]
lec_hci_handle_br_edr_set_event_mask_page2_command
                        0x00024f6b    0x1e  Code  Gb  lec_hci_br_edr_commands.o [5]
lec_hci_handle_clear_resolving_list_command
                        0x00021571     0x8  Code  Gb  lec_hci_le_common_commands.o [5]
lec_hci_handle_clear_white_list_command
                        0x0002134b     0x8  Code  Gb  lec_hci_le_common_commands.o [5]
lec_hci_handle_command_pkts
                        0x00024001    0xb8  Code  Gb  lec_hci_le.o [5]
lec_hci_handle_commands
                        0x000240b9    0x98  Code  Gb  lec_hci_le.o [5]
lec_hci_handle_connection_update_command
                        0x00020731     0x8  Code  Gb  lec_hci_le_conn_commands.o [5]
lec_hci_handle_create_conn_cancel_command
                        0x00020729     0x8  Code  Gb  lec_hci_le_conn_commands.o [5]
lec_hci_handle_create_connection_command
                        0x00020721     0x8  Code  Gb  lec_hci_le_conn_commands.o [5]
lec_hci_handle_disconnect
                        0x00024f99    0x18  Code  Gb  lec_hci_br_edr_commands.o [5]
lec_hci_handle_encrypt_command
                        0x000212e1     0x8  Code  Gb  lec_hci_le_encryption_commands.o [5]
lec_hci_handle_le_command
                        0x00020d05    0x38  Code  Gb  lec_hci_le_commands.o [5]
lec_hci_handle_le_default_command
                        0x0002136b     0x4  Code  Gb  lec_hci_le_common_commands.o [5]
lec_hci_handle_le_generate_dh_key_command
                        0x00021425    0x34  Code  Gb  lec_hci_le_common_commands.o [5]
lec_hci_handle_le_read_local_p256_public_key_command
                        0x000213c9    0x26  Code  Gb  lec_hci_le_common_commands.o [5]
lec_hci_handle_longterm_key_req_neg_reply_command
                        0x000209e1     0x8  Code  Gb  lec_hci_le_conn_commands.o [5]
lec_hci_handle_longterm_key_req_reply_command
                        0x000209d9     0x8  Code  Gb  lec_hci_le_conn_commands.o [5]
lec_hci_handle_read_authenticated_payload_timeout_command
                        0x00024fb9    0x1e  Code  Gb  lec_hci_br_edr_commands.o [5]
lec_hci_handle_read_bb_reg_command
                        0x00024d29    0x54  Code  Gb  lec_hci_le_vendor_commands.o [5]
lec_hci_handle_read_bb_reg_vendor_command
                        0x00024d7d     0xe  Code  Gb  lec_hci_le_vendor_commands.o [5]
lec_hci_handle_read_channel_map_command
                        0x00021363     0x8  Code  Gb  lec_hci_le_common_commands.o [5]
lec_hci_handle_read_conn_reg_command
                        0x00023e6f    0x60  Code  Gb  platform_vendor_cmds.o [5]
lec_hci_handle_read_conn_reg_vendor_command
                        0x00023ecf    0x10  Code  Gb  platform_vendor_cmds.o [5]
lec_hci_handle_read_local_resolvable_private_address_command
                        0x00021547     0xa  Code  Gb  lec_hci_le_common_commands.o [5]
lec_hci_handle_read_maximum_data_length_command
                        0x00020769     0x8  Code  Gb  lec_hci_le_conn_commands.o [5]
lec_hci_handle_read_peer_resolvable_private_address_command
                        0x0002153d     0xa  Code  Gb  lec_hci_le_common_commands.o [5]
lec_hci_handle_read_remote_features_command
                        0x00020739     0x8  Code  Gb  lec_hci_le_conn_commands.o [5]
lec_hci_handle_read_resolving_list_size_command
                        0x00021579     0x4  Code  Gb  lec_hci_le_common_commands.o [5]
lec_hci_handle_read_rf_reg_vendor_command
                        0x00024da3    0x5e  Code  Gb  lec_hci_le_vendor_commands.o [5]
lec_hci_handle_read_rssi_command
                        0x00024f91     0x8  Code  Gb  lec_hci_br_edr_commands.o [5]
lec_hci_handle_read_transmit_power_level_command
                        0x00024f89     0x8  Code  Gb  lec_hci_br_edr_commands.o [5]
lec_hci_handle_read_white_list_size_command
                        0x00021347     0x4  Code  Gb  lec_hci_le_common_commands.o [5]
lec_hci_handle_rem_dev_from_resolving_list_command
                        0x00021569     0x8  Code  Gb  lec_hci_le_common_commands.o [5]
lec_hci_handle_rem_dev_from_white_list_command
                        0x0002135b     0x8  Code  Gb  lec_hci_le_common_commands.o [5]
lec_hci_handle_remote_connection_parameter_request_negative_reply_command
                        0x00020751     0x8  Code  Gb  lec_hci_le_conn_commands.o [5]
lec_hci_handle_remote_connection_parameter_request_reply_command
                        0x00020749     0x8  Code  Gb  lec_hci_le_conn_commands.o [5]
lec_hci_handle_remote_version_cmd
                        0x00024fb1     0x8  Code  Gb  lec_hci_br_edr_commands.o [5]
lec_hci_handle_reset_command
                        0x00024f15    0x18  Code  Gb  lec_hci_br_edr_commands.o [5]
lec_hci_handle_scan_enable_command
                        0x00024c61     0x8  Code  Gb  lec_hci_le_scan_commands.o [5]
lec_hci_handle_set_address_resolution_enable_command
                        0x00021551     0x8  Code  Gb  lec_hci_le_common_commands.o [5]
lec_hci_handle_set_adv_data_command
                        0x0002740d     0x8  Code  Gb  lec_hci_le_adv_commands.o [5]
lec_hci_handle_set_adv_enable_command
                        0x00027415     0x8  Code  Gb  lec_hci_le_adv_commands.o [5]
lec_hci_handle_set_adv_param_command
                        0x00027405     0x8  Code  Gb  lec_hci_le_adv_commands.o [5]
lec_hci_handle_set_bd_addr_cmd
                        0x00023cb3    0x18  Code  Gb  platform_vendor_cmds.o [5]
lec_hci_handle_set_data_length_command
                        0x00020759     0x8  Code  Gb  lec_hci_le_conn_commands.o [5]
lec_hci_handle_set_event_mask_command
                        0x0002132d    0x12  Code  Gb  lec_hci_le_common_commands.o [5]
lec_hci_handle_set_host_ch_classification_command
                        0x00020741     0x8  Code  Gb  lec_hci_le_conn_commands.o [5]
lec_hci_handle_set_local_sca_command
                        0x00023f19    0x58  Code  Gb  platform_vendor_cmds.o [5]
lec_hci_handle_set_local_supported_feature_command
                        0x00023fc3     0xe  Code  Gb  platform_vendor_cmds.o [5]
lec_hci_handle_set_random_address_command
                        0x0002133f     0x8  Code  Gb  lec_hci_le_common_commands.o [5]
lec_hci_handle_set_resolvable_private_address_timeout_command
                        0x00021559     0x8  Code  Gb  lec_hci_le_common_commands.o [5]
lec_hci_handle_set_scan_param_command
                        0x00024c59     0x8  Code  Gb  lec_hci_le_scan_commands.o [5]
lec_hci_handle_set_scan_response_command
                        0x000273fd     0x8  Code  Gb  lec_hci_le_adv_commands.o [5]
lec_hci_handle_start_encryption_command
                        0x00020981     0xc  Code  Gb  lec_hci_le_conn_commands.o [5]
lec_hci_handle_start_receiver_test_command
                        0x0002136f     0x8  Code  Gb  lec_hci_le_common_commands.o [5]
lec_hci_handle_start_transmitter_test_command
                        0x00021377     0x8  Code  Gb  lec_hci_le_common_commands.o [5]
lec_hci_handle_test_end_command
                        0x0002137f     0x8  Code  Gb  lec_hci_le_common_commands.o [5]
lec_hci_handle_vendor_command
                        0x00024cd1    0x40  Code  Gb  lec_hci_le_vendor_commands.o [5]
lec_hci_handle_vendor_config_tx_power_cmd
                        0x00023df9    0x24  Code  Gb  platform_vendor_cmds.o [5]
lec_hci_handle_vendor_start_dtm_rx_cmd
                        0x00023d47    0x1e  Code  Gb  platform_vendor_cmds.o [5]
lec_hci_handle_vendor_start_dtm_tx_cmd
                        0x00023cef    0x58  Code  Gb  platform_vendor_cmds.o [5]
lec_hci_handle_vendor_test_end_cmd
                        0x00023d6d    0x42  Code  Gb  platform_vendor_cmds.o [5]
lec_hci_handle_write_authenticated_payload_timeout_command
                        0x00024fd7    0x1e  Code  Gb  lec_hci_br_edr_commands.o [5]
lec_hci_handle_write_bb_reg_vendor_command
                        0x00024d11    0x18  Code  Gb  lec_hci_le_vendor_commands.o [5]
lec_hci_handle_write_conn_reg_vendor_command
                        0x00023edf    0x20  Code  Gb  platform_vendor_cmds.o [5]
lec_hci_handle_write_rf_reg_vendor_command
                        0x00024d8b    0x18  Code  Gb  lec_hci_le_vendor_commands.o [5]
lec_hci_handle_write_suggested_def_data_len_command
                        0x00020761     0x8  Code  Gb  lec_hci_le_conn_commands.o [5]
lec_hci_le_convert_set_local_supported_feature_command
                        0x00023fb7     0xc  Code  Gb  platform_vendor_cmds.o [5]
lec_hci_process_generate_dhkey_proc_signal
                        0x000213ef    0x36  Code  Gb  lec_hci_le_common_commands.o [5]
lec_hci_process_read_local_p256_key_proc_signal
                        0x00021397    0x32  Code  Gb  lec_hci_le_common_commands.o [5]
lec_hci_vendor_read_private_key
                        0x00023f71    0x46  Code  Gb  platform_vendor_cmds.o [5]
lec_is_hci_ecdh_command_in_progress
                        0x00021387    0x10  Code  Gb  lec_hci_le_common_commands.o [5]
lec_self_device_data    0x20009038    0xac  Data  Gb  ll.o [5]
lec_send_single_adv     0x0001d3b5    0x56  Code  Gb  ll_advertiser.o [5]
lec_single_adv_complete
                        0x0001d411    0x1c  Code  Gb  ll_advertiser.o [5]
ledPins                 0x200003ec    0x1c  Data  Gb  gpio_pins.o [1]
ll_acl_queue_device_send_pending_tx_pkts
                        0x000206e7    0x28  Code  Gb  ll_connection.o [5]
ll_acl_queue_enqueue_tx_acl_pkt
                        0x00020503    0x3a  Code  Gb  ll_connection.o [5]
ll_acl_queue_get_next_tx_acl_pkt
                        0x0002053d    0xb2  Code  Gb  ll_connection.o [5]
ll_acl_queue_process_ack_received
                        0x000205ef    0x70  Code  Gb  ll_connection.o [5]
ll_acl_queue_send_pending_tx_acl_pkts
                        0x0002068d    0x5a  Code  Gb  ll_connection.o [5]
ll_add_device_in_local_resolving_list
                        0x00019be7    0x1c  Code  Gb  ll.o [5]
ll_allocate_connection  0x0001d83d    0x3a  Code  Gb  ll_connection.o [5]
ll_allocate_send_reject_ind_ext_pdu
                        0x0002274d    0x22  Code  Gb  ll_pdu.o [5]
ll_allocate_send_unknown_rsp_pdu
                        0x00022067    0x20  Code  Gb  ll_pdu.o [5]
ll_calculate_and_program_def_win_widen_drift
                        0x0001f6bf    0x1a  Code  Gb  ll_connection.o [5]
ll_calculate_drift      0x0001eca5    0x28  Code  Gb  ll_connection.o [5]
ll_can_allow_incoming_connection_update
                        0x0001ecdd    0x42  Code  Gb  ll_connection.o [5]
ll_cleanup_pending_data_pdu
                        0x0002065f    0x2e  Code  Gb  ll_connection.o [5]
ll_clear_interrupt      0x0001bf55    0x3a  Code  Gb  llh_api.o [5]
ll_clear_interrupt_type
                        0x0001bf4d     0x8  Code  Gb  llh_api.o [5]
ll_clear_local_conn_update_params
                        0x0001ff5f     0xc  Code  Gb  ll_connection.o [5]
ll_clear_remote_conn_update_params
                        0x0001ff4f    0x10  Code  Gb  ll_connection.o [5]
ll_config_rpa_timer     0x00019953    0x14  Code  Gb  ll.o [5]
ll_configure_clock_gating
                        0x000198e5    0x44  Code  Gb  ll.o [5]
ll_configure_connection_for_disconnect
                        0x000217b5    0x24  Code  Lc  ll_pdu.o [5]
ll_conn_configure_auto_data_length_exchange
                        0x0002162d    0x34  Code  Gb  ll_pdu.o [5]
ll_conn_dequeue_pending_pdu
                        0x00022909    0x3c  Code  Gb  ll_pdu.o [5]
ll_conn_derive_other_connection_intervals
                        0x00024485    0x3e  Code  Gb  ll_policies.o [5]
ll_conn_dle_backup_effective_octets
                        0x0001ff8d    0x1e  Code  Gb  ll_connection.o [5]
ll_conn_enqueue_pending_pdu
                        0x000228d5    0x34  Code  Gb  ll_pdu.o [5]
ll_conn_fifo_get_tx_acl_data_octets
                        0x000204f1    0x12  Code  Gb  ll_connection.o [5]
ll_conn_free_enc_txn_buffer
                        0x0002013d    0x16  Code  Gb  ll_connection.o [5]
ll_conn_fsm_update_channel_map
                        0x0001e91f    0x64  Code  Gb  ll_connection.o [5]
ll_conn_fsm_update_channel_state
                        0x0001d7e7     0x6  Code  Gb  ll_connection.o [5]
ll_conn_fsm_update_conn_update_state
                        0x0001d7e1     0x6  Code  Gb  ll_connection.o [5]
ll_conn_fsm_update_dle_update_state
                        0x0001d7db     0x6  Code  Gb  ll_connection.o [5]
ll_conn_fsm_update_enc_state
                        0x0001d7d5     0x6  Code  Gb  ll_connection.o [5]
ll_conn_fsm_update_state
                        0x0001d7d1     0x4  Code  Gb  ll_connection.o [5]
ll_conn_handle_direct_adv_timeout
                        0x000203e3    0x30  Code  Gb  ll_connection.o [5]
ll_conn_handle_ping_timer_expired_interrupt
                        0x0001f749     0xa  Code  Gb  ll_connection.o [5]
ll_conn_handle_ping_timer_nearly_expired_interrupt
                        0x0001f739    0x10  Code  Gb  ll_connection.o [5]
ll_conn_handle_ready_ind
                        0x0001f6eb    0x4e  Code  Gb  ll_connection.o [5]
ll_conn_handle_reject_conn_param_update_pdus
                        0x000216fd    0x4a  Code  Gb  ll_pdu.o [5]
ll_conn_handle_stop_connectable_adv
                        0x00020413    0x12  Code  Gb  ll_connection.o [5]
ll_conn_init_pending_pdu
                        0x00022955     0xc  Code  Gb  ll_pdu.o [5]
ll_conn_is_available_pending_pdu
                        0x00022945    0x10  Code  Gb  ll_pdu.o [5]
ll_conn_is_channel_map_update_in_progress
                        0x00020383    0x10  Code  Gb  ll_connection.o [5]
ll_conn_is_data_len_update_in_progress
                        0x0001fcf1     0xc  Code  Gb  ll_connection.o [5]
ll_conn_is_data_len_update_pending
                        0x0001fcfd    0x24  Code  Gb  ll_connection.o [5]
ll_conn_is_dedicated_fifo_free
                        0x00020425    0x16  Code  Gb  ll_connection.o [5]
ll_conn_is_read_remote_feature_in_progress
                        0x00020393     0xe  Code  Gb  ll_connection.o [5]
ll_conn_is_to_move_anchor_point
                        0x0001f895    0xe6  Code  Gb  ll_connection.o [5]
ll_conn_perform_anchor_point_move
                        0x0001f981    0x5a  Code  Gb  ll_connection.o [5]
ll_conn_process_pending_transactions
                        0x00020175    0xf0  Code  Gb  ll_connection.o [5]
ll_conn_program_authenticated_payload_timer
                        0x0001f78d    0x60  Code  Gb  ll_connection.o [5]
ll_conn_send_conn_param_request
                        0x0001fe91    0x4c  Code  Gb  ll_connection.o [5]
ll_conn_send_conn_param_response
                        0x0001fee1    0x4a  Code  Gb  ll_connection.o [5]
ll_conn_send_connection_update
                        0x0001fdef    0x9e  Code  Gb  ll_connection.o [5]
ll_conn_send_length_req
                        0x0002003d    0x3e  Code  Gb  ll_connection.o [5]
ll_conn_send_length_rsp
                        0x00020081    0x54  Code  Gb  ll_connection.o [5]
ll_conn_send_ping_req_pdu
                        0x0001f753    0x3a  Code  Gb  ll_connection.o [5]
ll_conn_start_initiation
                        0x0001e79b    0x1c  Code  Gb  ll_connection.o [5]
ll_conn_store_pending_tx_pdu
                        0x0001df27    0x18  Code  Gb  ll_connection.o [5]
ll_conn_update_is_local_change
                        0x00021747    0x6e  Code  Gb  ll_pdu.o [5]
ll_conn_update_rssi     0x0001e051     0x8  Code  Gb  ll_connection.o [5]
ll_conn_var_get_active_map_index
                        0x000204c5     0x8  Code  Gb  ll_connection.o [5]
ll_conn_var_get_role    0x000204dd     0x6  Code  Gb  ll_connection.o [5]
ll_conn_var_set_active_map_index
                        0x000204cd    0x10  Code  Gb  ll_connection.o [5]
ll_conn_var_set_role    0x000204e3     0xe  Code  Gb  ll_connection.o [5]
ll_convert_hci_llid_to_ll_llid_host_to_controller
                        0x0001e031     0xc  Code  Gb  ll_connection.o [5]
ll_convert_ll_llid_to_hci_llid_controller_to_host
                        0x0001e03d     0x2  Code  Gb  ll_connection.o [5]
ll_count_access_code_transitions
                        0x0001e299    0x2c  Code  Gb  ll_connection.o [5]
ll_decode_and_program_connect_req
                        0x0001ebb9    0xd8  Code  Gb  ll_connection.o [5]
ll_decode_interrupt_type
                        0x0001b5f1    0x42  Code  Gb  ll_tasks.o [5]
ll_decrypt_ll_pdu       0x0001eee9    0x86  Code  Gb  ll_connection.o [5]
ll_decrypt_packet       0x0001ef6f    0x88  Code  Gb  ll_connection.o [5]
ll_derive_adv_interval  0x000241cd     0x8  Code  Gb  ll_policies.o [5]
ll_derive_ce_length_for_master
                        0x00024373    0x42  Code  Gb  ll_policies.o [5]
ll_derive_ce_length_for_slave
                        0x000241d5    0x24  Code  Gb  ll_policies.o [5]
ll_derive_connection_interval
                        0x0002435f    0x14  Code  Gb  ll_policies.o [5]
ll_derive_connection_interval_range
                        0x00024309    0x56  Code  Gb  ll_policies.o [5]
ll_derive_data_channel_map
                        0x0001ea9f    0x54  Code  Gb  ll_connection.o [5]
ll_derive_dle_params    0x0001ffab    0x92  Code  Gb  ll_connection.o [5]
ll_derive_instant_for_create_conn
                        0x000241f9    0x46  Code  Gb  ll_policies.o [5]
ll_derive_latency       0x000243d7     0x2  Code  Gb  ll_policies.o [5]
ll_derive_new_connection_param
                        0x0001fa8d   0x146  Code  Gb  ll_connection.o [5]
ll_derive_num_slots_for_octets
                        0x000243b5    0x22  Code  Gb  ll_policies.o [5]
ll_derive_offset0       0x00024b3b    0x6a  Code  Gb  ll_policies.o [5]
ll_derive_offsets       0x00024a01   0x13a  Code  Gb  ll_policies.o [5]
ll_derive_params        0x000241c5     0x8  Code  Gb  ll_policies.o [5]
ll_derive_preferred_periodicity
                        0x00024ba5    0x30  Code  Gb  ll_policies.o [5]
ll_derive_reference_conn_event_count
                        0x000243db    0x1a  Code  Gb  ll_policies.o [5]
ll_derive_sutimeout     0x000243d9     0x2  Code  Gb  ll_policies.o [5]
ll_derive_update_instant
                        0x00024bd5    0x80  Code  Gb  ll_policies.o [5]
ll_derive_window_offset
                        0x0001a201     0x4  Code  Gb  ll.o [5]
ll_derive_window_size   0x0001a1f5     0x6  Code  Gb  ll.o [5]
ll_disable_interrupt    0x0001bf1b    0x32  Code  Gb  llh_api.o [5]
ll_disable_interrupt_type
                        0x0001bf09    0x12  Code  Gb  llh_api.o [5]
ll_enable_interrupt     0x0001becb    0x28  Code  Gb  llh_api.o [5]
ll_enable_interrupt_type
                        0x0001bec5     0x6  Code  Gb  llh_api.o [5]
ll_enc_fsm_derive_session_key
                        0x0001ed39    0x48  Code  Gb  ll_connection.o [5]
ll_enc_handle_enc_complete
                        0x0001eff7    0x84  Code  Gb  ll_connection.o [5]
ll_enc_handle_enc_failure
                        0x0001f07b    0xcc  Code  Gb  ll_connection.o [5]
ll_enc_handle_ll_reject_pdu_cb
                        0x0001f169    0x24  Code  Gb  ll_connection.o [5]
ll_enc_handle_ll_terminate_pdu
                        0x0001ed81    0x16  Code  Gb  ll_connection.o [5]
ll_enc_handle_ll_unknown_resp_pdu_cb
                        0x0001f147    0x22  Code  Gb  ll_connection.o [5]
ll_enc_handle_master_await_to_pause_cb
                        0x0001f33d    0x3a  Code  Gb  ll_connection.o [5]
ll_enc_handle_master_await_to_start_cb
                        0x0001f28f    0x5c  Code  Gb  ll_connection.o [5]
ll_enc_handle_master_enc_resp_cb
                        0x0001f2eb     0xe  Code  Gb  ll_connection.o [5]
ll_enc_handle_master_pause_enc_resp_ack
                        0x0001f3ab     0xa  Code  Gb  ll_connection.o [5]
ll_enc_handle_master_pause_enc_resp_cb
                        0x0001f377    0x34  Code  Gb  ll_connection.o [5]
ll_enc_handle_master_start_enc_req_cb
                        0x0001f301    0x34  Code  Gb  ll_connection.o [5]
ll_enc_handle_master_start_enc_resp_cb
                        0x0001f335     0x8  Code  Gb  ll_connection.o [5]
ll_enc_handle_slave_await_to_start_cb
                        0x0001f3b5    0x7e  Code  Gb  ll_connection.o [5]
ll_enc_handle_slave_enc_resp_ack_cb
                        0x0001f439    0x28  Code  Gb  ll_connection.o [5]
ll_enc_handle_slave_ltk_neg_reply_cb
                        0x0001f461    0x5a  Code  Gb  ll_connection.o [5]
ll_enc_handle_slave_pause_enc_req_cb
                        0x0001f519    0x46  Code  Gb  ll_connection.o [5]
ll_enc_handle_slave_pause_enc_resp_cb
                        0x0001f55f    0x10  Code  Gb  ll_connection.o [5]
ll_enc_handle_slave_reject_ind_ack_cb
                        0x0001f4bb    0x22  Code  Gb  ll_connection.o [5]
ll_enc_handle_slave_start_enc_resp_ack_cb
                        0x0001f511     0x8  Code  Gb  ll_connection.o [5]
ll_enc_handle_slave_start_enc_resp_cb
                        0x0001f4dd    0x2e  Code  Gb  ll_connection.o [5]
ll_enc_send_start_encryption_request
                        0x0001f58b    0x34  Code  Gb  ll_connection.o [5]
ll_encrypt_ll_pdu       0x0001edc7    0x88  Code  Gb  ll_connection.o [5]
ll_encrypt_packet       0x0001ee4f    0x9a  Code  Gb  ll_connection.o [5]
ll_events_Q             0x20008498   0x1e4  Data  Gb  ll_tasks.o [5]
ll_extract_conn_param_req_rsp_pdu
                        0x0002249d    0x8c  Code  Gb  ll_pdu.o [5]
ll_extract_len_req_rsp_pdu
                        0x00022837    0x2a  Code  Gb  ll_pdu.o [5]
ll_extract_pdu_opcode   0x0001df23     0x4  Code  Gb  ll_connection.o [5]
ll_fill_connection_param_req_rsp_pdu
                        0x000223c9    0x78  Code  Gb  ll_pdu.o [5]
ll_find_first_instant_for_create_conn
                        0x0002423f    0xca  Code  Gb  ll_policies.o [5]
ll_fsm_handle_conn_established_ind
                        0x0001d923    0x94  Code  Gb  ll_connection.o [5]
ll_fsm_handle_conn_failure_ind
                        0x0001d903     0x4  Code  Gb  ll_connection.o [5]
ll_fsm_handle_disconnecting_state
                        0x0001dcaf     0xe  Code  Gb  ll_connection.o [5]
ll_fsm_handle_end_of_conn_interval
                        0x0001d9b7    0x14  Code  Gb  ll_connection.o [5]
ll_fsm_handle_pdu_response_timeout
                        0x0001dcc5    0x20  Code  Gb  ll_connection.o [5]
ll_fsm_handle_sup_timeout_ind
                        0x0001d907    0x12  Code  Gb  ll_connection.o [5]
ll_fsm_move_to_disconnected_state
                        0x0001dc0d    0xa2  Code  Gb  ll_connection.o [5]
ll_generate_connection_complete
                        0x0001ddb7   0x15e  Code  Gb  ll_connection.o [5]
ll_generate_data_len_change_event
                        0x00022961    0x4a  Code  Gb  ll_pdu.o [5]
ll_generate_disconnection_complete
                        0x0001df15     0xe  Code  Gb  ll_connection.o [5]
ll_generate_le_rd_remote_used_feat_event
                        0x00021661    0x26  Code  Gb  ll_pdu.o [5]
ll_generate_remote_conn_param_req_event
                        0x0001ff2b    0x24  Code  Gb  ll_connection.o [5]
ll_generate_update_complete_event
                        0x000216cb    0x32  Code  Gb  ll_pdu.o [5]
ll_get_access_address   0x0001bb71    0x14  Code  Gb  ll_utils.o [5]
ll_get_ack_status       0x0001a0d3    0x32  Code  Gb  ll.o [5]
ll_get_adv_ch_tx_power  0x00019cf5    0x14  Code  Gb  ll.o [5]
ll_get_adv_status       0x0001d3a9     0xc  Code  Gb  ll_advertiser.o [5]
ll_get_adv_type         0x0001d391    0x18  Code  Gb  ll_advertiser.o [5]
ll_get_conn_update_txn_info
                        0x00022399    0x30  Code  Gb  ll_pdu.o [5]
ll_get_connection_entity
                        0x0001d88d    0x22  Code  Gb  ll_connection.o [5]
ll_get_crc_init         0x0001bb65     0xc  Code  Gb  ll_utils.o [5]
ll_get_data_channel_map
                        0x00019eb5    0x2a  Code  Gb  ll.o [5]
ll_get_default_tx_oxtets
                        0x00019afb     0x6  Code  Gb  ll.o [5]
ll_get_default_tx_time  0x00019b01     0x6  Code  Gb  ll.o [5]
ll_get_dle_effective_max_tx_octets
                        0x0001fcdd    0x14  Code  Gb  ll_connection.o [5]
ll_get_enc_txn_info     0x0002011d    0x20  Code  Gb  ll_connection.o [5]
ll_get_event_param_buffer
                        0x0001baf7     0x4  Code  Gb  ll_utils.o [5]
ll_get_hop_increment    0x0001bb8d    0x24  Code  Gb  ll_utils.o [5]
ll_get_le_adv_pkt       0x0001d5d1   0x1c2  Code  Gb  ll_scanner.o [5]
ll_get_llid_loaded_to_llh
                        0x0001e03f    0x12  Code  Gb  ll_connection.o [5]
ll_get_local_remote_req_clk
                        0x000245c3    0x62  Code  Gb  ll_policies.o [5]
ll_get_local_sca        0x0001bb85     0x8  Code  Gb  ll_utils.o [5]
ll_get_max_resolving_list_size
                        0x00019c9b     0x4  Code  Gb  ll.o [5]
ll_get_max_val          0x0001bea7     0xc  Code  Gb  ll_utils.o [5]
ll_get_max_white_list_size
                        0x00019ce3     0xa  Code  Gb  ll.o [5]
ll_get_min_val          0x0001beb3     0xc  Code  Gb  ll_utils.o [5]
ll_get_my_role          0x00019ab1     0xe  Code  Gb  ll.o [5]
ll_get_next_available_fifo_for_data_pdu
                        0x0002043b    0x50  Code  Gb  ll_connection.o [5]
ll_get_next_available_fifo_for_ll_pdu
                        0x00020495    0x26  Code  Gb  ll_connection.o [5]
ll_get_next_conn_instants_from_req_clk
                        0x000244d1    0xf2  Code  Gb  ll_policies.o [5]
ll_get_offsets_local_and_host_rcec_present
                        0x00024625    0xa8  Code  Gb  ll_policies.o [5]
ll_get_offsets_only_remote_rcec_present
                        0x000246d9   0x192  Code  Gb  ll_policies.o [5]
ll_get_offsets_remote_absent_or_not_acceptable
                        0x00024871   0x18c  Code  Gb  ll_policies.o [5]
ll_get_pref_periodicity
                        0x0001be45    0x62  Code  Gb  ll_utils.o [5]
ll_get_resolving_list_free_index
                        0x00019bc5    0x22  Code  Gb  ll.o [5]
ll_get_rssi_value       0x00019f0d    0x5e  Code  Gb  ll.o [5]
ll_get_scan_status      0x0001d7c5     0xc  Code  Gb  ll_scanner.o [5]
ll_get_time_for_octets  0x0001ff85     0x8  Code  Gb  ll_connection.o [5]
ll_get_transmit_power_level
                        0x00019edf    0x26  Code  Gb  ll.o [5]
ll_handle_ack_received  0x0001a175    0x56  Code  Gb  ll.o [5]
ll_handle_acl_tx_complete
                        0x0001e373    0x2e  Code  Gb  ll_connection.o [5]
ll_handle_add_device_in_resolving_list
                        0x00019c0d    0x4a  Code  Gb  ll.o [5]
ll_handle_add_device_in_whitelist
                        0x00019d2b    0x3a  Code  Gb  ll.o [5]
ll_handle_adv_intr      0x0001d0a5    0xe4  Code  Gb  ll_advertiser.o [5]
ll_handle_channel_update_pdu
                        0x00021c57    0x62  Code  Gb  ll_pdu.o [5]
ll_handle_channel_update_request_pdu_ack
                        0x00021b47     0x2  Code  Gb  ll_pdu.o [5]
ll_handle_clear_resolving_list
                        0x00019c81    0x1a  Code  Gb  ll.o [5]
ll_handle_clear_whitelist
                        0x00019d15    0x16  Code  Gb  ll.o [5]
ll_handle_conn_failed_ind
                        0x0001d9fb    0x32  Code  Gb  ll_connection.o [5]
ll_handle_conn_interrupt
                        0x0001da9f   0x164  Code  Gb  ll_connection.o [5]
ll_handle_conn_update_failure
                        0x00021687    0x32  Code  Gb  ll_pdu.o [5]
ll_handle_conn_update_ind
                        0x0001da2d    0x52  Code  Gb  ll_connection.o [5]
ll_handle_conn_update_pdu
                        0x00021bb3    0xa4  Code  Gb  ll_pdu.o [5]
ll_handle_conn_update_request_pdu_ack
                        0x00021b45     0x2  Code  Gb  ll_pdu.o [5]
ll_handle_connection_param_req_pdu
                        0x00022529    0xbe  Code  Gb  ll_pdu.o [5]
ll_handle_connection_param_rsp_pdu
                        0x000225fb    0x62  Code  Gb  ll_pdu.o [5]
ll_handle_connection_update_command
                        0x0001e983     0xa  Code  Gb  ll_connection.o [5]
ll_handle_connection_update_command_internal
                        0x0001e455   0x124  Code  Gb  ll_connection.o [5]
ll_handle_create_conn_cancel_command
                        0x0001e7b7    0x44  Code  Gb  ll_connection.o [5]
ll_handle_create_connection_command
                        0x0001e639   0x162  Code  Gb  ll_connection.o [5]
ll_handle_data_pdu_ack_received
                        0x0001dda1     0xc  Code  Gb  ll_connection.o [5]
ll_handle_disconnect_cmd
                        0x0001d8af    0x54  Code  Gb  ll_connection.o [5]
ll_handle_dle_unknown_rsp_pdu
                        0x00021dd7    0x2a  Code  Gb  ll_pdu.o [5]
ll_handle_encrypt_host_data
                        0x00019e01    0x3a  Code  Gb  ll.o [5]
ll_handle_encryption_request_pdu
                        0x00022257    0xb6  Code  Gb  ll_pdu.o [5]
ll_handle_encryption_request_pdu_ack
                        0x0002220d     0x2  Code  Gb  ll_pdu.o [5]
ll_handle_encryption_response_pdu
                        0x000221b9    0x38  Code  Gb  ll_pdu.o [5]
ll_handle_encryption_response_pdu_ack
                        0x00022323     0x8  Code  Gb  ll_pdu.o [5]
ll_handle_failure_during_conn_update
                        0x000216b9    0x12  Code  Gb  ll_pdu.o [5]
ll_handle_feature_request_pdu
                        0x00021cb9    0x60  Code  Gb  ll_pdu.o [5]
ll_handle_feature_request_pdu_ack
                        0x00021b49     0x2  Code  Gb  ll_pdu.o [5]
ll_handle_feature_response_pdu
                        0x00021b4b    0x4a  Code  Gb  ll_pdu.o [5]
ll_handle_feature_response_pdu_ack
                        0x00021d19     0x2  Code  Gb  ll_pdu.o [5]
ll_handle_host_data_packet
                        0x00019f6b    0x54  Code  Gb  ll.o [5]
ll_handle_incoming_data_packet
                        0x0001ddad     0xa  Code  Gb  ll_connection.o [5]
ll_handle_incoming_ll_pdu
                        0x00021981    0x3c  Code  Gb  ll_pdu.o [5]
ll_handle_incoming_packet
                        0x0001e203    0x8e  Code  Gb  ll_connection.o [5]
ll_handle_init_interrupt
                        0x0001e57d    0xae  Code  Gb  ll_connection.o [5]
ll_handle_length_req_pdu
                        0x00021e01    0x4c  Code  Gb  ll_pdu.o [5]
ll_handle_length_rsp_pdu
                        0x00021e51    0x5c  Code  Gb  ll_pdu.o [5]
ll_handle_length_rsp_pdu_ack
                        0x000228ad    0x28  Code  Gb  ll_pdu.o [5]
ll_handle_ll_pdu_ack_received
                        0x00021871    0x28  Code  Gb  ll_pdu.o [5]
ll_handle_ltk_negative_reply
                        0x0001f61d    0x34  Code  Gb  ll_connection.o [5]
ll_handle_ltk_req_reply
                        0x0001f5c5    0x58  Code  Gb  ll_connection.o [5]
ll_handle_master_conn_created_ind
                        0x0001e81b    0x6a  Code  Gb  ll_connection.o [5]
ll_handle_pause_encryption_request_pdu
                        0x0002230d    0x16  Code  Gb  ll_pdu.o [5]
ll_handle_pause_encryption_request_pdu_ack
                        0x0002220f    0x14  Code  Gb  ll_pdu.o [5]
ll_handle_pause_encryption_response_pdu
                        0x0002210b    0x22  Code  Gb  ll_pdu.o [5]
ll_handle_pause_encryption_response_pdu_ack
                        0x0002214d    0x26  Code  Gb  ll_pdu.o [5]
ll_handle_ping_req_pdu  0x00022355    0x3a  Code  Gb  ll_pdu.o [5]
ll_handle_ping_rsp_pdu  0x0002238f     0xa  Code  Gb  ll_pdu.o [5]
ll_handle_read_authenticated_payload_timeout_cmd
                        0x0001f7ed    0x40  Code  Gb  ll_connection.o [5]
ll_handle_read_host_channel_map
                        0x00019dfd     0x4  Code  Gb  ll.o [5]
ll_handle_read_maximum_data_length_command
                        0x00019b19    0x3a  Code  Gb  ll.o [5]
ll_handle_read_remote_features_command
                        0x0001e891    0x68  Code  Gb  ll_connection.o [5]
ll_handle_read_resolvable_private_address_command
                        0x00019b53    0x52  Code  Gb  ll.o [5]
ll_handle_reject_ind_ext_pdu
                        0x00022791    0x8e  Code  Gb  ll_pdu.o [5]
ll_handle_reject_ind_ext_pdu_ack
                        0x00022825     0x8  Code  Gb  ll_pdu.o [5]
ll_handle_reject_indication_pdu
                        0x0002205d     0xa  Code  Gb  ll_pdu.o [5]
ll_handle_reject_indication_pdu_ack
                        0x000220c7     0x8  Code  Gb  ll_pdu.o [5]
ll_handle_remote_connection_parameter_request_negative_reply_command
                        0x0001fa4f    0x3e  Code  Gb  ll_connection.o [5]
ll_handle_remote_connection_parameter_request_reply_command
                        0x0001f9e5    0x6a  Code  Gb  ll_connection.o [5]
ll_handle_remote_version_cmd
                        0x0001dce5    0xac  Code  Gb  ll_connection.o [5]
ll_handle_remove_device_from_resolving_list
                        0x00019c57    0x2a  Code  Gb  ll.o [5]
ll_handle_remove_device_in_whitelist
                        0x00019d65    0x2a  Code  Gb  ll.o [5]
ll_handle_reset         0x00019a89     0xc  Code  Gb  ll.o [5]
ll_handle_scan_interrupt
                        0x0001d445    0x6e  Code  Gb  ll_scanner.o [5]
ll_handle_set_address_resolution_enable_command
                        0x00019ba5    0x10  Code  Gb  ll.o [5]
ll_handle_set_adv_data  0x0001d2a3    0x1a  Code  Gb  ll_advertiser.o [5]
ll_handle_set_adv_parameters
                        0x0001d1e9    0xba  Code  Gb  ll_advertiser.o [5]
ll_handle_set_advertise_enable
                        0x0001d2d7    0x8a  Code  Gb  ll_advertiser.o [5]
ll_handle_set_data_length_command
                        0x0001fc09    0x8a  Code  Gb  ll_connection.o [5]
ll_handle_set_host_channel_map
                        0x00019ff7    0x2c  Code  Gb  ll.o [5]
ll_handle_set_random_address
                        0x00019abf    0x3c  Code  Gb  ll.o [5]
ll_handle_set_resolvable_private_address_timeout_command
                        0x00019bb5    0x10  Code  Gb  ll.o [5]
ll_handle_set_scan_enable
                        0x0001d557    0x44  Code  Gb  ll_scanner.o [5]
ll_handle_set_scan_parameters
                        0x0001d4eb    0x6c  Code  Gb  ll_scanner.o [5]
ll_handle_set_scan_resp_data
                        0x0001d2bd    0x1a  Code  Gb  ll_advertiser.o [5]
ll_handle_slave_conn_created_ind
                        0x0001eb05    0xaa  Code  Gb  ll_connection.o [5]
ll_handle_slave_feature_req_pdu
                        0x000226a3    0xa0  Code  Gb  ll_pdu.o [5]
ll_handle_start_encrypt_cmd
                        0x0001f1cf    0xc0  Code  Gb  ll_connection.o [5]
ll_handle_start_encryption_request_pdu
                        0x000221f1    0x12  Code  Gb  ll_pdu.o [5]
ll_handle_start_encryption_request_pdu_ack
                        0x0002232b     0x8  Code  Gb  ll_pdu.o [5]
ll_handle_start_encryption_response_pdu
                        0x000220ef    0x1c  Code  Gb  ll_pdu.o [5]
ll_handle_start_encryption_response_pdu_ack
                        0x0002212d    0x20  Code  Gb  ll_pdu.o [5]
ll_handle_start_receiver_test
                        0x00019e3b    0x1c  Code  Gb  ll.o [5]
ll_handle_start_transmitter_test
                        0x00019e57    0x1e  Code  Gb  ll.o [5]
ll_handle_terminate_pdu
                        0x00021d8d    0x4a  Code  Gb  ll_pdu.o [5]
ll_handle_terminate_request_pdu_ack
                        0x000220a5    0x1e  Code  Gb  ll_pdu.o [5]
ll_handle_test_test_end
                        0x00019e7d    0x34  Code  Gb  ll.o [5]
ll_handle_unknown_pdu   0x00022087    0x1e  Code  Gb  ll_pdu.o [5]
ll_handle_unknown_response_pdu
                        0x00021eb1    0x72  Code  Gb  ll_pdu.o [5]
ll_handle_unknown_response_pdu_ack
                        0x000220c3     0x2  Code  Gb  ll_pdu.o [5]
ll_handle_update_channel_map_ind
                        0x0001d9cb    0x30  Code  Gb  ll_connection.o [5]
ll_handle_version_indication_pdu
                        0x00021f23   0x134  Code  Gb  ll_pdu.o [5]
ll_handle_version_indication_pdu_ack
                        0x000220c5     0x2  Code  Gb  ll_pdu.o [5]
ll_handle_write_authenticated_payload_timeout_cmd
                        0x0001f82d    0x62  Code  Gb  ll_connection.o [5]
ll_handle_write_suggested_def_data_len_command
                        0x0001fcc5    0x12  Code  Gb  ll_connection.o [5]
ll_hci_command_process_ind
                        0x000198cd    0x18  Code  Gb  ll.o [5]
ll_hci_get_num_commands_pkts
                        0x0002418d     0x6  Code  Gb  lec_hci_le.o [5]
ll_increment_rx_packet_counter
                        0x0001edaf    0x18  Code  Gb  ll_connection.o [5]
ll_increment_tx_packet_counter
                        0x0001ed97    0x18  Code  Gb  ll_connection.o [5]
ll_init                 0x000199cd    0x46  Code  Gb  ll.o [5]
ll_init_advertiser      0x0001d189    0x60  Code  Gb  ll_advertiser.o [5]
ll_init_connection      0x0001d7ed    0x50  Code  Gb  ll_connection.o [5]
ll_init_initiator       0x0001e7fb    0x20  Code  Gb  ll_connection.o [5]
ll_init_lfsr            0x0001bafb    0x36  Code  Gb  ll_utils.o [5]
ll_init_link_for_encryption
                        0x0001ed1f    0x1a  Code  Gb  ll_connection.o [5]
ll_init_scanner         0x0001d4b3    0x38  Code  Gb  ll_scanner.o [5]
ll_initialize_device_attributes
                        0x00019a13    0x76  Code  Gb  ll.o [5]
ll_initialized          0x20009819     0x1  Data  Lc  ll.o [5]
ll_is_acceptable_offset
                        0x000243f5    0x90  Code  Gb  ll_policies.o [5]
ll_is_address_translation_enabled
                        0x0001baaf    0x10  Code  Gb  ll_utils.o [5]
ll_is_conn_considered_for_derive_params
                        0x000203af    0x12  Code  Gb  ll_connection.o [5]
ll_is_conn_created      0x000203a1     0xe  Code  Gb  ll_connection.o [5]
ll_is_conn_update_channel_map_pending
                        0x0001e90d    0x12  Code  Gb  ll_connection.o [5]
ll_is_conn_update_in_progress
                        0x00020377     0xc  Code  Gb  ll_connection.o [5]
ll_is_data_paused       0x0001e3a9     0xc  Code  Gb  ll_connection.o [5]
ll_is_dle_procedure_allowed
                        0x0001fbd3    0x30  Code  Gb  ll_connection.o [5]
ll_is_encryption_in_progress
                        0x0002035f    0x18  Code  Gb  ll_connection.o [5]
ll_is_operation_allowed
                        0x0001bc1b     0x4  Code  Gb  ll_utils.o [5]
ll_is_pending_tx_packets
                        0x0001f6d9    0x12  Code  Gb  ll_connection.o [5]
ll_is_random_address_in_use
                        0x0001ba8d    0x22  Code  Gb  ll_utils.o [5]
ll_is_random_address_in_use_by_advertiser
                        0x0001d37f    0x12  Code  Gb  ll_advertiser.o [5]
ll_is_random_address_in_use_by_initiator
                        0x0001e3f9    0x2c  Code  Gb  ll_connection.o [5]
ll_is_random_address_in_use_by_scanner
                        0x0001d7b3    0x12  Code  Gb  ll_scanner.o [5]
ll_is_resolving_list_in_use
                        0x0001babf    0x16  Code  Gb  ll_utils.o [5]
ll_is_rpa_using_procedure_running
                        0x00019949     0xa  Code  Gb  ll.o [5]
ll_is_valid_access_address
                        0x0001e2c5    0x5c  Code  Gb  ll_connection.o [5]
ll_is_white_list_in_use
                        0x0001bad5    0x22  Code  Gb  ll_utils.o [5]
ll_is_white_list_in_use_by_initiator
                        0x0001e425    0x2c  Code  Gb  ll_connection.o [5]
ll_is_whitelist_in_use_by_advertiser
                        0x0001d36d    0x12  Code  Gb  ll_advertiser.o [5]
ll_is_whitelist_in_use_by_scanner
                        0x0001d7a1    0x12  Code  Gb  ll_scanner.o [5]
ll_load_default_dle_params
                        0x000200d5    0x44  Code  Gb  ll_connection.o [5]
ll_load_host_data_packet
                        0x00019fbf    0x38  Code  Gb  ll.o [5]
ll_load_packet_to_fifo  0x0001a03f    0x94  Code  Gb  ll.o [5]
ll_mark_packet_ready_for_tx
                        0x0001a029    0x16  Code  Gb  ll.o [5]
ll_mesh_filter_Q        0x20009564    0x1c  Data  Lc  bt_le_bluetooth.o [5]
ll_pack_ccm_nonce       0x0001bbb1    0x36  Code  Gb  ll_utils.o [5]
ll_packet_rx_callback   0x0001da8d    0x12  Code  Gb  ll_connection.o [5]
ll_pause_data_tx_fifo_index
                        0x0001e3b5    0x14  Code  Gb  ll_connection.o [5]
ll_perform_feature_exchange
                        0x0001fd21    0xce  Code  Gb  ll_connection.o [5]
ll_process_acks         0x0001a105    0x64  Code  Gb  ll.o [5]
ll_process_conn_param_req
                        0x000202f1    0x6e  Code  Gb  ll_connection.o [5]
ll_process_conn_update_cmd
                        0x00020287    0x60  Code  Gb  ll_connection.o [5]
ll_process_len_req      0x00020265    0x22  Code  Gb  ll_connection.o [5]
ll_process_ll_pdu       0x00021961    0x1e  Code  Gb  ll_pdu.o [5]
ll_process_pending_channel_update
                        0x00019dd5    0x28  Code  Gb  ll.o [5]
ll_process_pending_transactions
                        0x00020153    0x1e  Code  Gb  ll_connection.o [5]
ll_process_rx_packet    0x0001e059   0x1aa  Code  Gb  ll_connection.o [5]
ll_process_set_data_len_cmd
                        0x0001fc93    0x32  Code  Gb  ll_connection.o [5]
ll_process_start_enc    0x0001f18d    0x42  Code  Gb  ll_connection.o [5]
ll_program_channel_map_update
                        0x000217d9    0x36  Code  Gb  ll_pdu.o [5]
ll_program_connection_params
                        0x0001e98d   0x112  Code  Gb  ll_connection.o [5]
ll_release_conn_index   0x0001d877    0x16  Code  Gb  ll_connection.o [5]
ll_reset                0x00019a95    0x14  Code  Gb  ll.o [5]
ll_reset_resolving_list
                        0x00019929    0x20  Code  Gb  ll.o [5]
ll_restore_init         0x000199c3     0xa  Code  Gb  ll.o [5]
ll_resume_data_tx_fifo_index
                        0x0001e3c9    0x30  Code  Gb  ll_connection.o [5]
ll_retrieve_conneciton_in_state
                        0x000203c1    0x22  Code  Gb  ll_connection.o [5]
ll_scan_skip_adv_pkt    0x0001d59b    0x2c  Code  Gb  ll_scanner.o [5]
ll_search_peer_identity_addr
                        0x00019c9f    0x44  Code  Gb  ll.o [5]
ll_self_device_data     0x20007fd0   0x288  Data  Gb  ll.o [5]
ll_send_channel_update_pdu
                        0x00021adf    0x4c  Code  Gb  ll_pdu.o [5]
ll_send_conn_update_pdu
                        0x00021a5f    0x80  Code  Gb  ll_pdu.o [5]
ll_send_connection_param_req_pdu
                        0x00022441    0x14  Code  Gb  ll_pdu.o [5]
ll_send_connection_param_rsp_pdu
                        0x000225e7    0x14  Code  Gb  ll_pdu.o [5]
ll_send_encryption_request_pdu
                        0x00022173    0x46  Code  Gb  ll_pdu.o [5]
ll_send_encryption_response_pdu
                        0x00022223    0x2a  Code  Gb  ll_pdu.o [5]
ll_send_feature_request_pdu
                        0x00021b31    0x14  Code  Gb  ll_pdu.o [5]
ll_send_feature_response_pdu
                        0x00021b95    0x1e  Code  Gb  ll_pdu.o [5]
ll_send_length_req_pdu  0x0002282d     0xa  Code  Gb  ll_pdu.o [5]
ll_send_length_rsp_pdu  0x00022861     0x8  Code  Gb  ll_pdu.o [5]
ll_send_ltk_req_event_to_host
                        0x0001f56f    0x1c  Code  Gb  ll_connection.o [5]
ll_send_pause_encryption_request_pdu
                        0x00022203     0xa  Code  Gb  ll_pdu.o [5]
ll_send_pause_encryption_response_pdu
                        0x000220d9     0x8  Code  Gb  ll_pdu.o [5]
ll_send_pdu             0x0001df3f    0xe0  Code  Gb  ll_connection.o [5]
ll_send_pending_pdu     0x000218f1    0x6e  Code  Gb  ll_pdu.o [5]
ll_send_ping_req_pdu    0x00022333     0xa  Code  Gb  ll_pdu.o [5]
ll_send_ping_rsp_pdu    0x0002233d     0x8  Code  Gb  ll_pdu.o [5]
ll_send_reject_ind_ext_pdu
                        0x00022777    0x1a  Code  Gb  ll_pdu.o [5]
ll_send_reject_indication_pdu
                        0x00021d45    0x48  Code  Gb  ll_pdu.o [5]
ll_send_slave_feature_req_pdu
                        0x0002266f    0x10  Code  Gb  ll_pdu.o [5]
ll_send_start_encryption_request_pdu
                        0x0002224d     0xa  Code  Gb  ll_pdu.o [5]
ll_send_start_encryption_response_pdu
                        0x000220cf     0xa  Code  Gb  ll_pdu.o [5]
ll_send_terminate_pdu   0x00021a15    0x38  Code  Gb  ll_pdu.o [5]
ll_send_unknown_response_pdu
                        0x00021a4d    0x12  Code  Gb  ll_pdu.o [5]
ll_send_version_indication_pdu
                        0x00021d1b    0x26  Code  Gb  ll_pdu.o [5]
ll_store_conn_update_cmd_params
                        0x0001ff6b    0x1a  Code  Gb  ll_connection.o [5]
ll_task_handler         0x0001b559    0x98  Code  Gb  ll_tasks.o [5]
ll_update_active_features
                        0x00019967    0x5c  Code  Gb  ll.o [5]
ll_update_channel_map   0x00019d8f    0x46  Code  Gb  ll.o [5]
ll_update_connection_update_parameters
                        0x0002180f    0x62  Code  Lc  ll_pdu.o [5]
ll_update_device_fsm    0x00019aa9     0x8  Code  Gb  ll.o [5]
ll_update_md_bit        0x0001f651    0x30  Code  Gb  ll_connection.o [5]
ll_update_quick_transmit
                        0x0001f681    0x3e  Code  Gb  ll_connection.o [5]
ll_util_get_best_range  0x0001bc1f    0x6a  Code  Gb  ll_utils.o [5]
ll_util_get_least_ci_multiple
                        0x0001bc89    0x98  Code  Gb  ll_utils.o [5]
ll_validate_conn_param_req_rsp_pdu
                        0x00022455    0x3e  Code  Gb  ll_pdu.o [5]
llh_add_device_in_resolving_list
                        0x0001ccc1    0x58  Code  Gb  llh_api.o [5]
llh_add_device_in_whitelist
                        0x0001c913    0x5e  Code  Gb  llh_api.o [5]
llh_calculate_instant   0x0001c70f     0x6  Code  Gb  llh_api.o [5]
llh_cleanup_adv_scan_resp_data
                        0x0001c333    0x12  Code  Gb  llh_api.o [5]
llh_clear_ack           0x0001c6e3     0xc  Code  Gb  llh_api.o [5]
llh_clear_device_from_resolving_list
                        0x0001cd51    0x10  Code  Gb  llh_api.o [5]
llh_clear_fifo_descriptor
                        0x0001ce99    0x12  Code  Gb  llh_api.o [5]
llh_clear_pkt           0x0001c6fb    0x14  Code  Gb  llh_api.o [5]
llh_clear_sent_status   0x0001c6ef     0xc  Code  Gb  llh_api.o [5]
llh_config_conn_as_master
                        0x0001c5a1     0x6  Code  Gb  llh_api.o [5]
llh_config_conn_as_slave
                        0x0001c5a7     0x4  Code  Gb  llh_api.o [5]
llh_config_rpa_timer    0x0001cb8b     0xe  Code  Gb  llh_api.o [5]
llh_conn_read_rssi      0x0001c589     0xc  Code  Gb  llh_api.o [5]
llh_conn_set_suto_ci_ratio
                        0x0001cf89     0xe  Code  Gb  llh_api.o [5]
llh_create_connection   0x0001c5b5    0x56  Code  Gb  llh_api.o [5]
llh_create_connection_cancel
                        0x0001c611    0x12  Code  Gb  llh_api.o [5]
llh_decrement_rx_packet_count
                        0x0001c8d7     0x8  Code  Gb  llh_api.o [5]
llh_derive_instant      0x0001c773     0xe  Code  Gb  llh_api.o [5]
llh_enable_authenticated_timer
                        0x0001cfc9    0x32  Code  Gb  llh_api.o [5]
llh_enable_idle_interrupt
                        0x0001d057     0x2  Code  Gb  llh_api.o [5]
llh_enter_critical_section
                        0x0001ce7f     0xe  Code  Gb  llh_api.o [5]
llh_exit_critical_section
                        0x0001ce8d     0xc  Code  Gb  llh_api.o [5]
llh_exit_power_save_mode
                        0x0001ceb9    0x18  Code  Gb  llh_api.o [5]
llh_exit_sm             0x0001ced1     0x8  Code  Gb  llh_api.o [5]
llh_get_abs_distance_to_instant
                        0x0001c715    0x12  Code  Gb  llh_api.o [5]
llh_get_ack_status      0x0002159d     0xa  Code  Gb  llh_utils.o [5]
llh_get_adv_connection_index
                        0x0001cfb7    0x12  Code  Gb  llh_api.o [5]
llh_get_adv_scan_resp_data
                        0x0001c315    0x10  Code  Gb  llh_api.o [5]
llh_get_conn_params     0x0001cf13    0x38  Code  Gb  llh_api.o [5]
llh_get_current_ce_count
                        0x0001c781     0xa  Code  Gb  llh_api.o [5]
llh_get_current_instant_clk
                        0x0001ced9     0x8  Code  Gb  llh_api.o [5]
llh_get_data_descriptor_address
                        0x000215b1     0x8  Code  Gb  llh_utils.o [5]
llh_get_max_rx_octets_supported
                        0x0001d059     0x4  Code  Gb  llh_api.o [5]
llh_get_max_tx_octets_supported
                        0x0001d05d     0x4  Code  Gb  llh_api.o [5]
llh_get_next_connection_instant
                        0x0001cee1     0xa  Code  Gb  llh_api.o [5]
llh_get_peer_address    0x0001cb1f    0x3e  Code  Gb  llh_api.o [5]
llh_get_peer_address_type
                        0x0001cb65    0x26  Code  Gb  llh_api.o [5]
llh_get_resolve_list_validity_reg_value
                        0x0001cb99     0xe  Code  Gb  llh_api.o [5]
llh_get_rx_fifo_address
                        0x0001c6dd     0x6  Code  Gb  llh_api.o [5]
llh_get_tx_fifo_address
                        0x0001c6c1    0x1c  Code  Gb  llh_api.o [5]
llh_get_tx_sent_status  0x000215a7     0xa  Code  Gb  llh_utils.o [5]
llh_handle_master_conn_created_ind
                        0x0001c879     0x2  Code  Gb  llh_api.o [5]
llh_handle_slave_conn_created_ind
                        0x0001c87b     0xe  Code  Gb  llh_api.o [5]
llh_initialize_tx_fifo_index
                        0x0001c86d     0xc  Code  Gb  llh_api.o [5]
llh_is_conn_instant_passed
                        0x0001c761    0x12  Code  Gb  llh_api.o [5]
llh_is_instant_passed   0x0001c72d    0x26  Code  Gb  llh_api.o [5]
llh_isr_handler         0x0001b319   0x236  Code  Gb  ll_tasks.o [5]
llh_load_channel_map    0x0001c7d1    0x48  Code  Gb  llh_api.o [5]
llh_load_data_to_connection_fifo
                        0x0001c683    0x3e  Code  Gb  llh_api.o [5]
llh_mark_packet_for_transmission
                        0x0001c63b    0x1e  Code  Gb  llh_api.o [5]
llh_modify_rpa_seed_value
                        0x0001cba7    0x46  Code  Gb  llh_api.o [5]
llh_perform_llh_soft_reset
                        0x0001bf8f    0xc6  Code  Gb  llh_api.o [5]
llh_program_authenticated_timer
                        0x0001cffb    0x30  Code  Gb  llh_api.o [5]
llh_program_channel_map_instant
                        0x0001c7bf    0x12  Code  Gb  llh_api.o [5]
llh_program_conn_request
                        0x0001ce6d    0x12  Code  Gb  llh_api.o [5]
llh_program_connection_update_instant
                        0x0001c84f    0x12  Code  Gb  llh_api.o [5]
llh_program_dtm_rx_test
                        0x0001cdc7    0x54  Code  Gb  llh_api.o [5]
llh_program_dtm_tx_test
                        0x0001cd61    0x66  Code  Gb  llh_api.o [5]
llh_program_init_params
                        0x0001c46d    0xb0  Code  Gb  llh_api.o [5]
llh_program_window_widen_interval
                        0x0001c889    0x38  Code  Gb  llh_api.o [5]
llh_program_window_widen_winoffset
                        0x0001c8c1    0x16  Code  Gb  llh_api.o [5]
llh_read_adv_ind_report_header
                        0x0001c311     0x4  Code  Gb  llh_api.o [5]
llh_read_channel_map    0x0001c819    0x36  Code  Gb  llh_api.o [5]
llh_read_from_list      0x0001cc91    0x2c  Code  Gb  llh_api.o [5]
llh_read_index_from_scan_fifo
                        0x0001c32f     0x4  Code  Gb  llh_api.o [5]
llh_read_rssi_from_scan_fifo
                        0x0001c325     0x2  Code  Gb  llh_api.o [5]
llh_remove_device_from_resolving_list
                        0x0001cd19    0x12  Code  Gb  llh_api.o [5]
llh_remove_device_from_white_list
                        0x0001c971    0x12  Code  Gb  llh_api.o [5]
llh_reset               0x0001c055   0x1b6  Code  Gb  llh_api.o [5]
llh_reset_whitelist     0x0001c8fd    0x16  Code  Gb  llh_api.o [5]
llh_restore             0x0001c211    0x1e  Code  Gb  llh_api.o [5]
llh_search_whitelist_for_dup_entry
                        0x0001c983    0xae  Code  Gb  llh_api.o [5]
llh_search_whitelist_for_free_index
                        0x0001ca3d    0x2e  Code  Gb  llh_api.o [5]
llh_set_address_resolution_enable
                        0x0001cbed    0x4a  Code  Gb  llh_api.o [5]
llh_set_adv_connection_index
                        0x0001cf97    0x20  Code  Gb  llh_api.o [5]
llh_set_adv_data        0x0001c26d    0x1c  Code  Gb  llh_api.o [5]
llh_set_adv_parameters  0x0001c22f    0x3e  Code  Gb  llh_api.o [5]
llh_set_advertise_disable
                        0x0001c2f9    0x18  Code  Gb  llh_api.o [5]
llh_set_advertise_enable
                        0x0001c2a5    0x50  Code  Gb  llh_api.o [5]
llh_set_ce_length       0x0001c569     0xc  Code  Gb  llh_api.o [5]
llh_set_conn_update_parameters
                        0x0001c521    0x48  Code  Gb  llh_api.o [5]
llh_set_conn_window_parameters
                        0x0001c575    0x14  Code  Gb  llh_api.o [5]
llh_set_device_address  0x0001caef    0x30  Code  Gb  llh_api.o [5]
llh_set_llh_device_register_bits
                        0x0001d031    0x26  Code  Gb  llh_api.o [5]
llh_set_llh_quick_tx_feature_config
                        0x0001cf4b    0x2a  Code  Gb  llh_api.o [5]
llh_set_peer_address    0x0001ca75    0x4a  Code  Gb  llh_api.o [5]
llh_set_random_address  0x0001cabf    0x30  Code  Gb  llh_api.o [5]
llh_set_resolvable_private_address_timeout
                        0x0001cc37    0x26  Code  Gb  llh_api.o [5]
llh_set_scan_disable    0x0001c3f5    0x20  Code  Gb  llh_api.o [5]
llh_set_scan_enable     0x0001c387    0x5e  Code  Gb  llh_api.o [5]
llh_set_scan_parameters
                        0x0001c345    0x42  Code  Gb  llh_api.o [5]
llh_set_scan_resp_data  0x0001c289    0x1c  Code  Gb  llh_api.o [5]
llh_set_sl_connection_interval
                        0x0001cf75     0xc  Code  Gb  llh_api.o [5]
llh_start_pdu_rsp_timer
                        0x0001ceeb    0x1e  Code  Gb  llh_api.o [5]
llh_stop_dtm            0x0001ce1b    0x52  Code  Gb  llh_api.o [5]
llh_stop_pdu_rsp_timer  0x0001cf09     0xa  Code  Gb  llh_api.o [5]
llh_terminate_connection
                        0x0001c623     0x8  Code  Gb  llh_api.o [5]
llh_terminate_connection_after_tx
                        0x0001c62b     0x6  Code  Gb  llh_api.o [5]
llh_update_channel_map  0x0001c78b    0x34  Code  Gb  llh_api.o [5]
llh_update_data_descriptor
                        0x0001c661    0x22  Code  Gb  llh_api.o [5]
llh_update_md_bit       0x0001c8df    0x18  Code  Gb  llh_api.o [5]
llh_update_reg_field    0x0001cd2b    0x26  Code  Gb  llh_api.o [5]
llh_update_slave_latency
                        0x0001c595     0xc  Code  Gb  llh_api.o [5]
llh_write_to_list       0x0001cc5d    0x2e  Code  Gb  llh_api.o [5]
ltc_aes_ccm_check_input_args
                        0x000085ad    0x72  Code  Lc  fsl_ltc.o [1]
ltc_aes_ccm_context_init
                        0x0000863b    0x9e  Code  Lc  fsl_ltc.o [1]
ltc_aes_ccm_process     0x00008829   0x114  Code  Lc  fsl_ltc.o [1]
ltc_aes_ccm_process_aad
                        0x000086d9   0x150  Code  Lc  fsl_ltc.o [1]
ltc_aes_process_tag     0x00008503    0x38  Code  Lc  fsl_ltc.o [1]
ltc_aes_received_mac_compare
                        0x000084b5    0x4e  Code  Lc  fsl_ltc.o [1]
ltc_check_key_size      0x00007e77    0x10  Code  Gb  fsl_ltc.o [1]
ltc_clear_all           0x00007ed1     0x6  Code  Gb  fsl_ltc.o [1]
ltc_get_context         0x00008009    0x8c  Code  Gb  fsl_ltc.o [1]
ltc_get_word_from_unaligned
                        0x00007eef    0x2c  Code  Lc  fsl_ltc.o [1]
ltc_memcpy              0x00007ed7    0x18  Code  Gb  fsl_ltc.o [1]
ltc_move_block_to_ififo
                        0x000082ef    0x3a  Code  Lc  fsl_ltc.o [1]
ltc_move_to_ififo       0x00008329    0x52  Code  Lc  fsl_ltc.o [1]
ltc_process_message_in_sessions
                        0x00008281    0x6e  Code  Lc  fsl_ltc.o [1]
ltc_set_context         0x00007f7d    0x8c  Code  Gb  fsl_ltc.o [1]
ltc_set_key             0x00007f45    0x38  Code  Lc  fsl_ltc.o [1]
ltc_set_unaligned_from_word
                        0x00007f1b    0x2a  Code  Lc  fsl_ltc.o [1]
ltc_symmetric_alg_state
                        0x00008095    0x4c  Code  Lc  fsl_ltc.o [1]
ltc_symmetric_init      0x0000811b    0x2e  Code  Lc  fsl_ltc.o [1]
ltc_symmetric_init_final
                        0x00008149    0x2e  Code  Lc  fsl_ltc.o [1]
ltc_symmetric_process   0x00008177    0xb2  Code  Gb  fsl_ltc.o [1]
ltc_symmetric_process_data
                        0x00008229    0x58  Code  Gb  fsl_ltc.o [1]
ltc_symmetric_process_data_multiple
                        0x0000837b   0x13a  Code  Lc  fsl_ltc.o [1]
ltc_symmetric_update    0x000080ed    0x2e  Code  Gb  fsl_ltc.o [1]
ltc_wait                0x00007e87    0x4a  Code  Gb  fsl_ltc.o [1]
mAdvState               0x200097c4     0x4  Data  Lc  wireless_uart.o [1]
mAdvertisingStoppedForPrivacy
                        0x20008f8a     0x1  Data  Gb  gap.o [4]
mAppCbInputQueue        0x20009668     0xc  Data  Lc  ApplMain.o [1]
mAppEvent               0x20009704     0x4  Data  Lc  ApplMain.o [1]
mAppTimerId             0x2000980f     0x1  Data  Lc  wireless_uart.o [1]
mAppUartBufferSize      0x2000063a     0x2  Data  Lc  wireless_uart.o [1]
mAttConnections         0x200096bc     0xc  Data  Lc  att.o [4]
mAttData                0x20008920    0xf8  Data  Lc  att.o [4]
mAttIncomingClientExchangeMtuRequestCallback
                        0x200086b4     0x4  Data  Lc  att_cb.o [4]
mAttIncomingClientExecuteWriteRequestCallback
                        0x200086e4     0x4  Data  Lc  att_cb.o [4]
mAttIncomingClientFindByTypeValueRequestCallback
                        0x200086bc     0x4  Data  Lc  att_cb.o [4]
mAttIncomingClientFindInformationRequestCallback
                        0x200086b8     0x4  Data  Lc  att_cb.o [4]
mAttIncomingClientHandleValueConfirmationCallback
                        0x200086e8     0x4  Data  Lc  att_cb.o [4]
mAttIncomingClientPrepareWriteRequestCallback
                        0x200086e0     0x4  Data  Lc  att_cb.o [4]
mAttIncomingClientReadBlobRequestCallback
                        0x200086c8     0x4  Data  Lc  att_cb.o [4]
mAttIncomingClientReadByGroupTypeRequestCallback
                        0x200086d0     0x4  Data  Lc  att_cb.o [4]
mAttIncomingClientReadByTypeRequestCallback
                        0x200086c0     0x4  Data  Lc  att_cb.o [4]
mAttIncomingClientReadMultipleRequestCallback
                        0x200086cc     0x4  Data  Lc  att_cb.o [4]
mAttIncomingClientReadRequestCallback
                        0x200086c4     0x4  Data  Lc  att_cb.o [4]
mAttIncomingClientSignedWriteCommandCallback
                        0x200086dc     0x4  Data  Lc  att_cb.o [4]
mAttIncomingClientWriteCommandCallback
                        0x200086d8     0x4  Data  Lc  att_cb.o [4]
mAttIncomingClientWriteRequestCallback
                        0x200086d4     0x4  Data  Lc  att_cb.o [4]
mAttIncomingServerErrorResponseCallback
                        0x2000867c     0x4  Data  Lc  att_cb.o [4]
mAttIncomingServerExchangeMtuResponseCallback
                        0x20008680     0x4  Data  Lc  att_cb.o [4]
mAttIncomingServerExecuteWriteResponseCallback
                        0x200086a8     0x4  Data  Lc  att_cb.o [4]
mAttIncomingServerFindByTypeValueResponseCallback
                        0x20008688     0x4  Data  Lc  att_cb.o [4]
mAttIncomingServerFindInformationResponseCallback
                        0x20008684     0x4  Data  Lc  att_cb.o [4]
mAttIncomingServerHandleValueIndicationCallback
                        0x200086b0     0x4  Data  Lc  att_cb.o [4]
mAttIncomingServerHandleValueNotificationCallback
                        0x200086ac     0x4  Data  Lc  att_cb.o [4]
mAttIncomingServerPrepareWriteResponseCallback
                        0x200086a4     0x4  Data  Lc  att_cb.o [4]
mAttIncomingServerReadBlobResponseCallback
                        0x20008694     0x4  Data  Lc  att_cb.o [4]
mAttIncomingServerReadByGroupTypeResponseCallback
                        0x2000869c     0x4  Data  Lc  att_cb.o [4]
mAttIncomingServerReadByTypeResponseCallback
                        0x2000868c     0x4  Data  Lc  att_cb.o [4]
mAttIncomingServerReadMultipleResponseCallback
                        0x20008698     0x4  Data  Lc  att_cb.o [4]
mAttIncomingServerReadResponseCallback
                        0x20008690     0x4  Data  Lc  att_cb.o [4]
mAttIncomingServerWriteResponseCallback
                        0x200086a0     0x4  Data  Lc  att_cb.o [4]
mAttTimeoutCallback     0x200097e4     0x4  Data  Lc  att_cb.o [4]
mAttUnsupportedOpcodeCallback
                        0x200086ec     0x4  Data  Lc  att_cb.o [4]
mAutoConnAddIndex       0x20009713     0x1  Data  Lc  gap.o [4]
mAutoConnectWithIrk     0x20009712     0x1  Data  Gb  gap.o [4]
mAutoConnectWithPra     0x20009815     0x1  Data  Gb  gap.o [4]
mAutoConnectWithPraIndex
                        0x20008f8b     0x1  Data  Gb  gap.o [4]
mAutoSetRandomAddress   0x20008f88     0x1  Data  Gb  gap.o [4]
mBasServiceConfig       0x2000060c     0x4  Data  Lc  wireless_uart.o [1]
mBas_SubscribedClientId
                        0x200097fd     0x1  Data  Gb  battery_service.o [1]
mBatteryMeasurementTimerId
                        0x20009811     0x1  Data  Lc  wireless_uart.o [1]
mBleHostVersionString   0x20000610     0x4  Data  Lc  host_version.o [4]
mBleInitialized         0x20009718     0x1  Data  Lc  gap.o [4]
mCarInfo                0x20008f7c     0xc  Data  Lc  gap.o [4]
mCharMonitoredHandles   0x20000638     0x2  Data  Lc  wireless_uart.o [1]
mCheckIndex             0x20000219     0x1  Data  Lc  gap_cm.o [4]
mClientIndicationCallback
                        0x200097dc     0x4  Data  Lc  gatt_client.o [4]
mClientNotificationCallback
                        0x200097d8     0x4  Data  Lc  gatt_client.o [4]
mClientProcedureCallback
                        0x20009648     0x4  Data  Lc  gatt_client.o [4]
mConnectedEvent         0x20000224    0x24  Data  Lc  gap_cm.o [4]
mControllerPrivacyHciAddParam
                        0x20009010    0x28  Data  Gb  gap.o [4]
mControllerPrivacyIdCount
                        0x20008f8e     0x1  Data  Gb  gap.o [4]
mControllerPrivacyIdIndex
                        0x20008f8f     0x1  Data  Gb  gap.o [4]
mControllerPrivacyIdentities
                        0x20008f94    0x5c  Data  Gb  gap.o [4]
mControllerTaskEvent    0x20009754     0x4  Data  Gb  ble_controller_task.o [1]
mCounterFreqHz          0x200097b4     0x4  Data  Lc  TimersManager.o [1]
mCtx                    0x20009318    0x5c  Data  Lc  ble_conn_manager.o [1]
mDeviceAddress          0x2000021c     0x8  Data  Lc  gap_cm.o [4]
mDeviceId               0x20000218     0x1  Data  Lc  gap_cm.o [4]
mDeviceSecurityRequirements
                        0x2000950c     0x4  Data  Lc  gap.o [4]
mDrvData                0x20009524    0x20  Data  Lc  SerialManager.o [1]
mErrorRspParams         0x2000964c     0x8  Data  Lc  gatt_server.o [4]
mFwkVersionString       0x200005f8     0x4  Data  Lc  ModuleInfo.o [1]
mGapAdvertisingCallback
                        0x20008ff8     0x4  Data  Lc  gap.o [4]
mGapConnectionCallback  0x20008ffc     0x4  Data  Lc  gap.o [4]
mGapGenericCallback     0x2000971c     0x4  Data  Lc  gap.o [4]
mGapRole                0x2000980d     0x1  Data  Lc  wireless_uart.o [1]
mGapScanningCallback    0x200097d4     0x4  Data  Lc  gap.o [4]
mGattServerCallback     0x20009658     0x4  Data  Lc  gatt_server.o [4]
mGpioIsr                0x20009494    0x3c  Data  Lc  GPIO_Adapter.o [1]
mGpioIsrCount           0x200097f2     0x2  Data  Lc  GPIO_Adapter.o [1]
mHciCurrentNumLeDataPacketsSent
                        0x200002ea     0x1  Data  Lc  hci_commands.o [4]
mHciInit                0x200002e8     0x1  Data  Lc  hci_commands.o [4]
mHciLeBufferSize        0x2000030c     0x4  Data  Lc  hci_commands.o [4]
mHciTotalNumLeDataPackets
                        0x200002e9     0x1  Data  Lc  hci_commands.o [4]
mHostAppInputQueue      0x2000965c     0xc  Data  Lc  ApplMain.o [1]
mIndicationPending      0x20009655     0x1  Data  Lc  gatt_server.o [4]
mIrkVerificationAtAppRequest
                        0x2000021a     0x1  Data  Lc  gap_cm.o [4]
mKeyScanTimerID         0x2000063f     0x1  Data  Gb  Keyboard.o [1]
mKeyState               0x20009801     0x1  Data  Lc  Keyboard.o [1]
mL2caInit               0x2000981b     0x1  Data  Lc  l2ca_main.o [4]
mL2caLePsmCidConfig     0x20009708     0x8  Data  Lc  l2ca_resource_manager.o [4]
mLEDTimerID             0x20000641     0x1  Data  Lc  LED.o [1]
mLdmTimer               0x20000643     0x1  Data  Lc  gap.o [4]
mLedBlips               0x200097a8     0x4  Data  Lc  LED.o [1]
mLedFlashingLEDs        0x20009804     0x1  Data  Lc  LED.o [1]
mLedStartFlashingPosition
                        0x20000640     0x1  Data  Lc  LED.o [1]
mLimitedDiscoverableMode
                        0x20008f90     0x1  Data  Lc  gap.o [4]
mLocalPasskey           0x20000618     0x4  Data  Lc  gap.o [4]
mLocalPublicAddress     0x20009588     0x8  Data  Lc  device_db.o [4]
mLongKeyCount           0x200097a0     0x4  Data  Lc  Keyboard.o [1]
mLpuartBase             0x20000608     0x4  Data  Lc  UART_Adapter.o [1]
mLpuartIrqs             0x20000642     0x1  Data  Lc  UART_Adapter.o [1]
mMaxToCountDown_c       0x200097f8     0x2  Data  Lc  TimersManager.o [1]
mMostRecentlyUsedAddressType
                        0x20009585     0x1  Data  Lc  device_db.o [4]
mMostRecentlyUsedRandomAddress
                        0x20009590     0x8  Data  Lc  device_db.o [4]
mPIT_TimestampHigh      0x200097bc     0x4  Data  Lc  TimersManager.o [1]
mPRNG_Requests          0x200005fc     0x4  Data  Lc  RNG.o [1]
mPeerInformation        0x200096fc     0x8  Data  Lc  wireless_uart.o [1]
mPitBase                0x20000604     0x4  Data  Gb  TimersManager.o [1]
mPrivacyAdvertising     0x20008f89     0x1  Data  Gb  gap.o [4]
mPrivacyAdvertisingCallback
                        0x20008ff0     0x4  Data  Gb  gap.o [4]
mPrivacyConnectionCallback
                        0x20008ff4     0x4  Data  Gb  gap.o [4]
mPrivacyIrk             0x20009000    0x10  Data  Gb  gap.o [4]
mPrivacyState           0x20008f8d     0x1  Data  Gb  gap.o [4]
mPrivacyTimer           0x20000644     0x1  Data  Lc  gap.o [4]
mPrivacyUseIrk          0x20008f8c     0x1  Data  Gb  gap.o [4]
mProcedureData          0x20008258   0x240  Data  Lc  gatt_client.o [4]
mProcedureStatus        0x2000963c     0x8  Data  Lc  gatt_client.o [4]
mProdDataIdentifier     0x000275b4     0xc  Data  Lc  Flash_Adapter.o [1]
mRawParamStruct         0x20008b10    0xf8  Data  Lc  att_cb.o [4]
mReadHandleCount        0x20009654     0x1  Data  Lc  gatt_server.o [4]
mRngDisallowMcuSleep    0x20009805     0x1  Data  Gb  RNG.o [1]
mSMTaskEventId          0x200097b0     0x4  Data  Gb  SerialManager.o [1]
mSavedScanRspData       0x20009544    0x20  Data  Lc  gap.o [4]
mScanningOn             0x2000980e     0x1  Data  Lc  wireless_uart.o [1]
mSecLib_random          0x20000614     0x4  Data  Lc  SW_RNG.o [6]
mSecurityRequirements   0x20009500     0xc  Data  Lc  gap.o [4]
mSerials                0x20007248   0x5e4  Data  Lc  SerialManager.o [1]
mSignDataDeviceId       0x20009644     0x1  Data  Lc  gatt_client.o [4]
mSwcParams              0x20008a18    0xf8  Data  Lc  gap_cm.o [4]
mSwitch_SCAN            0x2000979c     0x4  Data  Lc  Keyboard.o [1]
mTicksFor4ms            0x200097fa     0x2  Data  Lc  TimersManager.o [1]
mTimerThreadEventId     0x200097b8     0x4  Data  Lc  TimersManager.o [1]
mTpmBase                0x20000548     0xc  Data  Lc  TMR_Adapter.o [1]
mTpmConfig              0x00027620     0xc  Data  Lc  TMR_Adapter.o [1]
mTpmIrqId               0x0002769c     0x4  Data  Lc  TMR_Adapter.o [1]
mUartStreamFlushTimerId
                        0x20009810     0x1  Data  Lc  wireless_uart.o [1]
mWriteHandleCount       0x20009817     0x1  Data  Lc  gatt_server.o [4]
mWuServiceConfig        0x200097c8     0x4  Data  Lc  wireless_uart.o [1]
mWus_SubscribedClientId
                        0x20009813     0x1  Data  Lc  wireless_uart_service.o [1]
mXtalTrimDefault        0x0000b0a3     0x1  Data  Lc  board.o [1]
maBleDeviceAddress      0x200096f4     0x8  Data  Lc  ble_conn_manager.o [1]
maBondDataBlobs         0x20006b88   0x6c0  Data  Lc  ApplMain.o [1]
maGpioBases             0x00027608     0xc  Data  Lc  GPIO_Adapter.o [1]
maPortBases             0x000275fc     0xc  Data  Lc  GPIO_Adapter.o [1]
maPortIrqId             0x200005f4     0x4  Data  Lc  GPIO_Adapter.o [1]
maServDiscInfo          0x200095c4    0x14  Data  Gb  ble_service_discovery.o [1]
maServiceSecurityRequirements
                        0x20009510    0x14  Data  Lc  gap.o [4]
maTmrTimerStatusTable   0x20009698     0xc  Data  Lc  TimersManager.o [1]
maTmrTimerTable         0x200086f0   0x120  Data  Lc  TimersManager.o [1]
main                    0x000096db    0x1e  Code  Gb  fsl_os_abstraction_bm.o [1]
main_task               0x0000ca7d    0xe2  Code  Gb  ApplMain.o [1]
mapTable                0x0002594c   0x400  Data  Gb  fsl_xcvr.o [1]
mcBondedDevices         0x20009584     0x1  Data  Lc  device_db.o [4]
mcgConfig_BOARD_BootClockRUN
                        0x00027650     0x8  Data  Gb  clock_config.o [1]
measurement_tbl2        0x20008eb4    0xc8  Data  Lc  fsl_xcvr_trim.o [1]
memHeap                 0x20000648  0x6540  Data  Gb  MemManager.o [1]
memPools                0x20009374    0x50  Data  Gb  MemManager.o [1]
mfLedInSerialMode       0x20009803     0x1  Data  Lc  LED.o [1]
mode_configs_dr_1mbps   0x20000248    0x28  Data  Gb  fsl_xcvr.o [1]
mode_configs_dr_250kbps
                        0x20000298    0x28  Data  Gb  fsl_xcvr.o [1]
mode_configs_dr_500kbps
                        0x20000270    0x28  Data  Gb  fsl_xcvr.o [1]
mpAutoConnectParams     0x20009714     0x4  Data  Gb  gap.o [4]
mpfKeyFunction          0x200097a4     0x4  Data  Lc  Keyboard.o [1]
msk_mode_config         0x00026f04    0x48  Data  Gb  fsl_xcvr_msk_config.o [1]
numberOfActiveTimers    0x20009808     0x1  Data  Lc  TimersManager.o [1]
numberOfLowPowerActiveTimers
                        0x20009809     0x1  Data  Lc  TimersManager.o [1]
nvmIsEntryOccupied      0x0000a0b5    0x14  Code  Lc  device_db.o [4]
nvmLoad                 0x0000a0e3    0x16  Code  Lc  device_db.o [4]
nvmSave                 0x0000a0cd    0x16  Code  Lc  device_db.o [4]
osEventHeap             0x20009174    0x8c  Data  Gb  fsl_os_abstraction_bm.o [1]
osEventInfo             0x000275d8     0xc  Data  Gb  fsl_os_abstraction_bm.o [1]
osObjectAlloc           0x000096f9    0x2a  Code  Lc  fsl_os_abstraction_bm.o [1]
osObjectIsAllocated     0x00009723    0x2c  Code  Lc  fsl_os_abstraction_bm.o [1]
os_thread_def_ControllerTask
                        0x20000330    0x20  Data  Gb  ble_controller_task.o [1]
os_thread_def_Host_Task
                        0x20000350    0x20  Data  Gb  ble_host_tasks.o [1]
os_thread_def_SerialManagerTask
                        0x20000390    0x20  Data  Gb  SerialManager.o [1]
os_thread_def_TMR_Task  0x200003b0    0x20  Data  Gb  TimersManager.o [1]
os_thread_def_main_task
                        0x20000370    0x20  Data  Gb  fsl_os_abstraction_bm.o [1]
pLpuartStates           0x200097c0     0x4  Data  Lc  UART_Adapter.o [1]
p_taskListHead          0x20009778     0x4  Data  Lc  fsl_os_abstraction_bm.o [1]
panic                   0x0000abc5     0x2  Code  Gb  Panic.o [1]
pfAdvCallback           0x2000972c     0x4  Data  Lc  ApplMain.o [1]
pfBLE_SignalFromISR     0x200097cc     0x4  Data  Gb  platform_board_init.o [5]
pfConnCallback          0x20009734     0x4  Data  Lc  ApplMain.o [1]
pfGattClientIndCallback
                        0x20009744     0x4  Data  Lc  ApplMain.o [1]
pfGattClientNotifCallback
                        0x20009740     0x4  Data  Lc  ApplMain.o [1]
pfGattClientProcCallback
                        0x2000973c     0x4  Data  Lc  ApplMain.o [1]
pfGattServerCallback    0x20009738     0x4  Data  Lc  ApplMain.o [1]
pfGenericCallback       0x20009728     0x4  Data  Lc  ApplMain.o [1]
pfHCI_SendToHostCallback
                        0x200097d0     0x4  Data  Gb  bt_le_bluetooth.o [5]
pfL2caLeCbControlCallback
                        0x2000974c     0x4  Data  Lc  ApplMain.o [1]
pfL2caLeCbDataCallback  0x20009748     0x4  Data  Lc  ApplMain.o [1]
pfScanCallback          0x20009730     0x4  Data  Lc  ApplMain.o [1]
pfServDiscCallback      0x20009760     0x4  Data  Lc  ble_service_discovery.o [1]
pf_get_lfsr_random_number
                        0x0001bb31    0x2c  Code  Gb  ll_utils.o [5]
pf_handle_power_save_exit
                        0x0001b67f    0x26  Code  Gb  platform_power_save.o [5]
pf_init_abs_layer       0x000196c9     0x2  Code  Gb  platform_abs.o [5]
pf_le_start_timer       0x0001a1cb    0x16  Code  Gb  ll.o [5]
pf_le_stop_timer        0x0001a1e1    0x14  Code  Gb  ll.o [5]
pf_mws_coex_mgr         0x200096ac     0x4  Data  Gb  bt_le_bluetooth.o [5]
pf_mws_mgr              0x200096a4     0x8  Data  Gb  bt_le_bluetooth.o [5]
pf_power_mgr            0x200096e0     0x8  Data  Gb  platform_power_save.o [5]
pf_power_mgr_init       0x0001b6e9    0x12  Code  Gb  platform_power_save.o [5]
pf_read_platform_reg    0x00023c8f     0x8  Code  Gb  platform_vendor_cmds.o [5]
pf_write_platform_reg   0x00023c97     0xe  Code  Gb  platform_vendor_cmds.o [5]
pfd_convert_vendor_command_params
                        0x00023aad    0x6e  Code  Gb  platform_vendor_cmds.o [5]
pfd_delay               0x000197d1    0x22  Code  Gb  platform_board_init.o [5]
pfd_exit_dsm            0x00019875     0x2  Code  Gb  platform_board_init.o [5]
pfd_exit_power_save_mode
                        0x0001b6a5    0x44  Code  Gb  platform_power_save.o [5]
pfd_get_initial_rng_seed
                        0x000197f3     0x4  Code  Gb  platform_board_init.o [5]
pfd_get_local_sca       0x0001b669     0xa  Code  Gb  platform_power_save.o [5]
pfd_get_rng_seed        0x000197f7     0x8  Code  Gb  platform_board_init.o [5]
pfd_handle_vendor_commands
                        0x00023b1b    0xa4  Code  Gb  platform_vendor_cmds.o [5]
pfd_init                0x000196cd    0xb6  Code  Gb  platform_board_init.o [5]
pfd_isr_exit_power_save_mode
                        0x0001b673     0xc  Code  Gb  platform_power_save.o [5]
pfd_llh_reset           0x00019801     0xc  Code  Gb  platform_board_init.o [5]
pfd_llh_restore_lp_mode
                        0x00019825    0x24  Code  Gb  platform_board_init.o [5]
pfd_llh_store_lp_mode   0x0001980d    0x18  Code  Gb  platform_board_init.o [5]
pfd_read_llh_fifo       0x0001b9e5    0x2e  Code  Gb  platform_llh_interface.o [5]
pfd_read_llh_register   0x0001b9d5     0x8  Code  Gb  platform_llh_interface.o [5]
pfd_rf_gen_interface    0x0001b709    0x68  Code  Gb  platform_rf_driver.o [5]
pfd_rf_get_abs_rssi_in_dbm
                        0x0001b885     0x4  Code  Gb  platform_rf_driver.o [5]
pfd_rf_get_tx_power     0x0001b89d     0xc  Code  Gb  platform_rf_driver.o [5]
pfd_rf_get_tx_power_in_dbm
                        0x0001b88d    0x10  Code  Gb  platform_rf_driver.o [5]
pfd_rf_init             0x0001b81b    0x38  Code  Gb  platform_rf_driver.o [5]
pfd_rf_read_reg         0x0001b7ab    0x32  Code  Gb  platform_rf_driver.o [5]
pfd_rf_read_rssi_val    0x0001b8a9     0xa  Code  Gb  platform_rf_driver.o [5]
pfd_rf_reset            0x0001b853    0x32  Code  Gb  platform_rf_driver.o [5]
pfd_rf_write_reg        0x0001b771    0x3a  Code  Gb  platform_rf_driver.o [5]
pfd_set_local_sca       0x00023eff    0x16  Code  Gb  platform_vendor_cmds.o [5]
pfd_set_random_address_notification
                        0x000197ff     0x2  Code  Gb  platform_board_init.o [5]
pfd_set_rf_power_level  0x00019783    0x4e  Code  Gb  platform_board_init.o [5]
pfd_write_llh_fifo      0x0001ba13    0x3a  Code  Gb  platform_llh_interface.o [5]
pfd_write_llh_memory    0x0001ba51    0x3c  Code  Gb  platform_llh_interface.o [5]
pfd_write_llh_register  0x0001b9dd     0x8  Code  Gb  platform_llh_interface.o [5]
phy_interface_init      0x0001b7dd    0x3e  Code  Lc  platform_rf_driver.o [5]
platformInitialized     0x200097fc     0x1  Data  Lc  ApplMain.o [1]
poolInfo                0x200002c0    0x28  Data  Gb  MemManager.o [1]
prepWrQueues            0x20009724     0x4  Data  Gb  gatt_db_prepare_write_queue.o [4]
pressedKey              0x20009802     0x1  Data  Lc  Keyboard.o [1]
previousTimeInTicks     0x200097f6     0x2  Data  Lc  TimersManager.o [1]
privacyTimeout          0x00011fad    0x36  Code  Lc  gap.o [4]
queueIndexes            0x20009721     0x1  Data  Gb  gatt_db_prepare_write_queue.o [4]
readAttributeValue      0x00014d5f    0x7c  Code  Lc  gatt_client.o [4]
readByGroupTypeUuidsMatch
                        0x00017edd     0x2  Code  Lc  gatt_db_att.o [4]
readByTypeUuidsMatch    0x00017ed9     0x4  Code  Lc  gatt_db_att.o [4]
readCccdFlag            0x00011e3d    0x24  Code  Lc  gap.o [4]
readPartAttributeValue  0x00017fa3    0x74  Code  Lc  gatt_db_att.o [4]
read_another_ifr_word   0x000185df    0x1a  Code  Gb  ifr_radio.o [1]
read_first_ifr_word     0x000185d1     0xe  Code  Gb  ifr_radio.o [1]
read_resource_ifr       0x000185f9    0xa0  Code  Gb  ifr_radio.o [1]
resetActiveDeviceSlot   0x0000a091    0x20  Code  Lc  device_db.o [4]
rf_param_hardcoded      0x0001b8d4   0x100  Data  Gb  platform_rf_driver.o [5]
rf_param_specific       0x2000061c     0x4  Data  Gb  platform_rf_driver.o [5]
roundf                  0x0001b2b5    0x3c  Code  Gb  roundf.o [7]
rx_bba_dcoc_dac_trim_DCest
                        0x000189b9   0x630  Code  Gb  fsl_xcvr_trim.o [1]
rx_dc_est_average       0x00018881   0x11a  Code  Gb  fsl_xcvr_trim.o [1]
rx_dc_est_average::dc_meas_i
                        0x200096ea     0x2  Data  Lc  fsl_xcvr_trim.o [1]
rx_dc_est_average::dc_meas_q
                        0x200097e8     0x2  Data  Lc  fsl_xcvr_trim.o [1]
rx_dc_est_average::dc_temp
                        0x2000978c     0x4  Data  Lc  fsl_xcvr_trim.o [1]
rx_dc_est_average::temp
                        0x20009790     0x4  Data  Lc  fsl_xcvr_trim.o [1]
s_PanicFunctionPtr      0x20009780     0x4  Data  Lc  fsl_xcvr.o [1]
s_adc16Bases            0x00027684     0x4  Data  Lc  fsl_adc16.o [1]
s_adc16Clocks           0x00027688     0x4  Data  Lc  fsl_adc16.o [1]
s_debugConsole          0x200095ec    0x10  Data  Lc  fsl_debug_console.o [1]
s_fastIrcFreq           0x200005e8     0x4  Data  Lc  fsl_clock.o [1]
s_lpuartBases           0x0002768c     0x4  Data  Lc  fsl_lpuart.o [1]
s_lpuartClock           0x00027690     0x4  Data  Lc  fsl_lpuart.o [1]
s_slowIrcFreq           0x200005e4     0x4  Data  Lc  fsl_clock.o [1]
s_tpmBases              0x000275e4     0xc  Data  Lc  fsl_tpm.o [1]
s_tpmClocks             0x000275f0     0xc  Data  Lc  fsl_tpm.o [1]
s_trngBases             0x00027694     0x4  Data  Lc  fsl_trng.o [1]
s_trngClock             0x00027698     0x4  Data  Lc  fsl_trng.o [1]
saveCentralAddressResolution
                        0x000163f1    0x42  Code  Lc  gatt_client.o [4]
saved_deep_sleep_mode   0x20000622     0x1  Data  Lc  platform_board_init.o [5]
service_battery_valueArray
                        0x20000634     0x2  Data  Gb  gatt_database.o [1]
service_device_info_valueArray
                        0x20000636     0x2  Data  Gb  gatt_database.o [1]
service_gap_valueArray  0x20000632     0x2  Data  Gb  gatt_database.o [1]
service_gatt_valueArray
                        0x20000630     0x2  Data  Gb  gatt_database.o [1]
service_wireless_uart_valueArray
                        0x200095fc    0x10  Data  Gb  gatt_database.o [1]
setAdvDataStruct        0x200094d0    0x20  Data  Lc  ll_advertiser.o [5]
setAdvParamStruct       0x200094f0    0x10  Data  Lc  ll_advertiser.o [5]
simConfig_BOARD_BootClockRUN
                        0x00027658     0x8  Data  Gb  clock_config.o [1]
singleAdvCompleteCallback
                        0x200096dc     0x4  Data  Gb  ll_advertiser.o [5]
smCallback              0x000235c1   0x394  Code  Gb  gap_sm_cb.o [4]
smCoreStruct            0x200090e4    0x90  Data  Gb  sm_core.o [4]
smDebugLogCircularBuffer
                        0x200004ac    0x10  Data  Lc  sm_debug.o [4]
smStateTable            0x00026178    0x78  Data  Lc  sm_states.o [4]
smpCsrk                 0x200004f0    0x10  Data  Lc  app_config.o [1]
smpIrk                  0x200004e0    0x10  Data  Lc  app_config.o [1]
smpLeLegacyIoCapToPairingMethodTable
                        0x000261f0    0x1c  Data  Lc  sm_states.o [4]
smpLeScIoCapToPairingMethodTable
                        0x0002620c    0x1c  Data  Lc  sm_states.o [4]
smpLtk                  0x200004d0    0x10  Data  Lc  app_config.o [1]
smpPacketTypeLengthTable
                        0x00006800    0x10  Data  Lc  sm_packet_op.o [4]
smpRand                 0x20000564     0x8  Data  Lc  app_config.o [1]
startAdvStruct          0x200096d8     0x4  Data  Lc  ll_advertiser.o [5]
static_gattDatabase     0x20000000   0x1e0  Data  Gb  gatt_database.o [1]
store_sw_trim           0x00018699    0x40  Code  Gb  ifr_radio.o [1]
strlen                  0x00012951    0x10  Code  Gb  strlen.o [8]
sw_sha1_hash_n          0x00008a73   0x19e  Code  Gb  SW_SHA1.o [6]
sw_sha1_initialize_output
                        0x00008a5d    0x16  Code  Gb  SW_SHA1.o [6]
swap_bytes              0x0000861f    0x1c  Code  Lc  fsl_ltc.o [1]
sweep_step_values2      0x00027454    0x1c  Data  Lc  fsl_xcvr_trim.o [1]
switchPins              0x200005dc     0x8  Data  Gb  gpio_pins.o [1]
task_init               0x000094cd    0x36  Code  Gb  fsl_os_abstraction_bm.o [1]
terminatePairing        0x00011ebf    0x2c  Code  Lc  gap.o [4]
timerHardwareIsRunning  0x2000980a     0x1  Data  Lc  TimersManager.o [1]
trng_ApplyUserConfig    0x000091dd   0x124  Code  Lc  fsl_trng.o [1]
trng_GetInstance        0x00008e77    0x32  Code  Lc  fsl_trng.o [1]
trng_ReadEntropy        0x00009319    0x1c  Code  Lc  fsl_trng.o [1]
trng_SetRetryCount      0x00008f33    0x30  Code  Lc  fsl_trng.o [1]
trng_SetStatisticalCheckLimit
                        0x00008f81   0x250  Code  Lc  fsl_trng.o [1]
tx_rx_on_delay          0x2000062c     0x2  Data  Gb  fsl_xcvr.o [1]
tx_rx_synth_delay       0x2000062e     0x2  Data  Gb  fsl_xcvr.o [1]
uuid16BitTo128Bit       0x00017f4d    0x18  Code  Lc  gatt_db_att.o [4]
uuid_service_wireless_uart
                        0x20000500    0x10  Data  Gb  gatt_database.o [1]
uuid_uart_stream        0x20000510    0x10  Data  Gb  gatt_database.o [1]
validateAttWriteParams  0x00016dfd    0x4e  Code  Lc  gatt_server.o [4]
value_appearance_valueArray
                        0x200097ec     0x2  Data  Gb  gatt_database.o [1]
value_battery_level_valueArray
                        0x2000063e     0x1  Data  Gb  gatt_database.o [1]
value_device_name_valueArray
                        0x20000520    0x10  Data  Gb  gatt_database.o [1]
value_fw_rev_valueArray
                        0x200005c4     0x8  Data  Gb  gatt_database.o [1]
value_hw_rev_valueArray
                        0x2000053c     0xc  Data  Gb  gatt_database.o [1]
value_manuf_name_valueArray
                        0x200005ec     0x4  Data  Gb  gatt_database.o [1]
value_model_no_valueArray
                        0x20000434    0x14  Data  Gb  gatt_database.o [1]
value_serial_no_valueArray
                        0x200005ac     0x8  Data  Gb  gatt_database.o [1]
value_service_changed_valueArray
                        0x20009794     0x4  Data  Gb  gatt_database.o [1]
value_sw_rev_valueArray
                        0x200005d4     0x8  Data  Gb  gatt_database.o [1]
value_uart_stream_valueArray
                        0x20008c08    0xf4  Data  Gb  gatt_database.o [1]
verifySignature         0x0001724d    0xa4  Code  Lc  gap_cm.o [4]
verifySignature{1}{3}::aData
                        0x20008810    0xf0  Data  Lc  gap_cm.o [4]
verifySignature{1}{3}::params
                        0x20008900    0x20  Data  Lc  gap_cm.o [4]
writeAttribute          0x00017f65    0x1c  Code  Lc  gatt_db_att.o [4]
writeAttributePart      0x00017f81    0x22  Code  Lc  gatt_db_att.o [4]
writeAttributeValue     0x00014f9b   0x26c  Code  Lc  gatt_client.o [4]
xcvr_1mbps_config       0x00026f94    0x40  Data  Gb  fsl_xcvr_mode_datarate_config.o [1]
xcvr_250kbps_config     0x00027014    0x40  Data  Gb  fsl_xcvr_mode_datarate_config.o [1]
xcvr_500kbps_config     0x00026fd4    0x40  Data  Gb  fsl_xcvr_mode_datarate_config.o [1]
xcvr_802_15_4_500kbps_config
                        0x00027054    0x40  Data  Gb  fsl_xcvr_zgbe_config.o [1]
xcvr_ANT_1mbps_config   0x000262b4    0x68  Data  Gb  fsl_xcvr_ant_config.o [1]
xcvr_BLE_1mbps_config   0x0002631c    0x68  Data  Gb  fsl_xcvr_ble_config.o [1]
xcvr_GFSK_BT_0p3_h_0p5_1mbps_config
                        0x00026384    0x68  Data  Gb  fsl_xcvr_gfsk_bt_0p3_h_0p5_config.o [1]
xcvr_GFSK_BT_0p3_h_0p5_250kbps_config
                        0x00026454    0x68  Data  Gb  fsl_xcvr_gfsk_bt_0p3_h_0p5_config.o [1]
xcvr_GFSK_BT_0p3_h_0p5_500kbps_config
                        0x000263ec    0x68  Data  Gb  fsl_xcvr_gfsk_bt_0p3_h_0p5_config.o [1]
xcvr_GFSK_BT_0p5_h_0p32_1mbps_config
                        0x000264bc    0x68  Data  Gb  fsl_xcvr_gfsk_bt_0p5_h_0p32_config.o [1]
xcvr_GFSK_BT_0p5_h_0p32_250kbps_config
                        0x0002658c    0x68  Data  Gb  fsl_xcvr_gfsk_bt_0p5_h_0p32_config.o [1]
xcvr_GFSK_BT_0p5_h_0p32_500kbps_config
                        0x00026524    0x68  Data  Gb  fsl_xcvr_gfsk_bt_0p5_h_0p32_config.o [1]
xcvr_GFSK_BT_0p5_h_0p5_1mbps_config
                        0x000265f4    0x68  Data  Gb  fsl_xcvr_gfsk_bt_0p5_h_0p5_config.o [1]
xcvr_GFSK_BT_0p5_h_0p5_250kbps_config
                        0x000266c4    0x68  Data  Gb  fsl_xcvr_gfsk_bt_0p5_h_0p5_config.o [1]
xcvr_GFSK_BT_0p5_h_0p5_500kbps_config
                        0x0002665c    0x68  Data  Gb  fsl_xcvr_gfsk_bt_0p5_h_0p5_config.o [1]
xcvr_GFSK_BT_0p5_h_0p7_1mbps_config
                        0x0002672c    0x68  Data  Gb  fsl_xcvr_gfsk_bt_0p5_h_0p7_config.o [1]
xcvr_GFSK_BT_0p5_h_0p7_250kbps_config
                        0x000267fc    0x68  Data  Gb  fsl_xcvr_gfsk_bt_0p5_h_0p7_config.o [1]
xcvr_GFSK_BT_0p5_h_0p7_500kbps_config
                        0x00026794    0x68  Data  Gb  fsl_xcvr_gfsk_bt_0p5_h_0p7_config.o [1]
xcvr_GFSK_BT_0p5_h_1p0_1mbps_config
                        0x00026864    0x68  Data  Gb  fsl_xcvr_gfsk_bt_0p5_h_1p0_config.o [1]
xcvr_GFSK_BT_0p5_h_1p0_250kbps_config
                        0x00026934    0x68  Data  Gb  fsl_xcvr_gfsk_bt_0p5_h_1p0_config.o [1]
xcvr_GFSK_BT_0p5_h_1p0_500kbps_config
                        0x000268cc    0x68  Data  Gb  fsl_xcvr_gfsk_bt_0p5_h_1p0_config.o [1]
xcvr_GFSK_BT_0p7_h_0p5_1mbps_config
                        0x0002699c    0x68  Data  Gb  fsl_xcvr_gfsk_bt_0p7_h_0p5_config.o [1]
xcvr_GFSK_BT_0p7_h_0p5_250kbps_config
                        0x00026a6c    0x68  Data  Gb  fsl_xcvr_gfsk_bt_0p7_h_0p5_config.o [1]
xcvr_GFSK_BT_0p7_h_0p5_500kbps_config
                        0x00026a04    0x68  Data  Gb  fsl_xcvr_gfsk_bt_0p7_h_0p5_config.o [1]
xcvr_MSK_1mbps_config   0x00026ad4    0x68  Data  Gb  fsl_xcvr_msk_config.o [1]
xcvr_MSK_250kbps_config
                        0x00026ba4    0x68  Data  Gb  fsl_xcvr_msk_config.o [1]
xcvr_MSK_500kbps_config
                        0x00026b3c    0x68  Data  Gb  fsl_xcvr_msk_config.o [1]
xcvr_ZIGBEE_500kbps_config
                        0x00026c0c    0x68  Data  Gb  fsl_xcvr_zgbe_config.o [1]
xcvr_common_config      0x00025d4c   0x23c  Data  Gb  fsl_xcvr_common_config.o [1]
zgbe_mode_config        0x00026f4c    0x48  Data  Gb  fsl_xcvr_zgbe_config.o [1]


[1] = E:\Tracy\NXP\KW41Z\资料\bm\bm\debug\obj
[2] = command line
[3] = dl6M_tln.a
[4] = lib_ble_4-2_host_cm0p.a
[5] = lib_ble_kw41z_controller.a
[6] = lib_crypto_m0.a
[7] = m6M_tl.a
[8] = rt6M_tl.a
[9] = shb_l.a

  153 758 bytes of readonly  code memory
    7 703 bytes of readonly  data memory
   39 961 bytes of readwrite data memory

Errors: none
Warnings: none
